
lms_ctr_app.elf:     file format elf32-littlenios2
lms_ctr_app.elf
architecture: nios2:r1, flags 0x00000112:
EXEC_P, HAS_SYMS, D_PAGED
start address 0x00100230

Program Header:
    LOAD off    0x00001000 vaddr 0x00100000 paddr 0x00100000 align 2**12
         filesz 0x00000020 memsz 0x00000020 flags r-x
    LOAD off    0x00001020 vaddr 0x00100020 paddr 0x00100020 align 2**12
         filesz 0x000037c8 memsz 0x000037c8 flags r-x
    LOAD off    0x00005000 vaddr 0x00200000 paddr 0x001037e8 align 2**12
         filesz 0x000006ec memsz 0x000009d8 flags rw-

Sections:
Idx Name          Size      VMA       LMA       File off  Algn
  0 .entry        00000020  00100000  00100000  00001000  2**5
                  CONTENTS, ALLOC, LOAD, READONLY, CODE
  1 .exceptions   00000210  00100020  00100020  00001020  2**2
                  CONTENTS, ALLOC, LOAD, READONLY, CODE
  2 .text         000035b8  00100230  00100230  00001230  2**2
                  CONTENTS, ALLOC, LOAD, READONLY, CODE
  3 .rodata       0000001c  00200000  001037e8  00005000  2**2
                  CONTENTS, ALLOC, LOAD, READONLY, DATA
  4 .rwdata       000006d0  0020001c  00103804  0000501c  2**2
                  CONTENTS, ALLOC, LOAD, DATA, SMALL_DATA
  5 .bss          000002ec  002006ec  00103ed4  000056ec  2**2
                  ALLOC, SMALL_DATA
  6 .onchip_flash_0_data 00000000  00103ed4  00103ed4  000056ec  2**0
                  CONTENTS
  7 .onchip_memory2_0 00000000  002009d8  002009d8  000056ec  2**0
                  CONTENTS
  8 .comment      00000023  00000000  00000000  000056ec  2**0
                  CONTENTS, READONLY
  9 .debug_aranges 000001c0  00000000  00000000  00005710  2**3
                  CONTENTS, READONLY, DEBUGGING
 10 .debug_info   00002d8c  00000000  00000000  000058d0  2**0
                  CONTENTS, READONLY, DEBUGGING
 11 .debug_abbrev 00000ba5  00000000  00000000  0000865c  2**0
                  CONTENTS, READONLY, DEBUGGING
 12 .debug_line   00000f1f  00000000  00000000  00009201  2**0
                  CONTENTS, READONLY, DEBUGGING
 13 .debug_frame  0000019c  00000000  00000000  0000a120  2**2
                  CONTENTS, READONLY, DEBUGGING
 14 .debug_str    00000ab9  00000000  00000000  0000a2bc  2**0
                  CONTENTS, READONLY, DEBUGGING
 15 .debug_loc    00000d0a  00000000  00000000  0000ad75  2**0
                  CONTENTS, READONLY, DEBUGGING
 16 .debug_alt_sim_info 00000040  00000000  00000000  0000ba80  2**2
                  CONTENTS, READONLY, DEBUGGING
 17 .debug_ranges 00000158  00000000  00000000  0000bac0  2**3
                  CONTENTS, READONLY, DEBUGGING
 18 .thread_model 00000003  00000000  00000000  0000dab8  2**0
                  CONTENTS, READONLY
 19 .cpu          00000009  00000000  00000000  0000dabb  2**0
                  CONTENTS, READONLY
 20 .qsys         00000001  00000000  00000000  0000dac4  2**0
                  CONTENTS, READONLY
 21 .simulation_enabled 00000001  00000000  00000000  0000dac5  2**0
                  CONTENTS, READONLY
 22 .sysid_hash   00000004  00000000  00000000  0000dac6  2**0
                  CONTENTS, READONLY
 23 .sysid_base   00000004  00000000  00000000  0000daca  2**0
                  CONTENTS, READONLY
 24 .sysid_time   00000004  00000000  00000000  0000dace  2**0
                  CONTENTS, READONLY
 25 .stderr_dev   00000004  00000000  00000000  0000dad2  2**0
                  CONTENTS, READONLY
 26 .stdin_dev    00000004  00000000  00000000  0000dad6  2**0
                  CONTENTS, READONLY
 27 .stdout_dev   00000004  00000000  00000000  0000dada  2**0
                  CONTENTS, READONLY
 28 .sopc_system_name 00000007  00000000  00000000  0000dade  2**0
                  CONTENTS, READONLY
 29 .sopcinfo     000774c5  00000000  00000000  0000dae5  2**0
                  CONTENTS, READONLY
SYMBOL TABLE:
00100000 l    d  .entry	00000000 .entry
00100020 l    d  .exceptions	00000000 .exceptions
00100230 l    d  .text	00000000 .text
00200000 l    d  .rodata	00000000 .rodata
0020001c l    d  .rwdata	00000000 .rwdata
002006ec l    d  .bss	00000000 .bss
00103ed4 l    d  .onchip_flash_0_data	00000000 .onchip_flash_0_data
002009d8 l    d  .onchip_memory2_0	00000000 .onchip_memory2_0
00000000 l    d  .comment	00000000 .comment
00000000 l    d  .debug_aranges	00000000 .debug_aranges
00000000 l    d  .debug_info	00000000 .debug_info
00000000 l    d  .debug_abbrev	00000000 .debug_abbrev
00000000 l    d  .debug_line	00000000 .debug_line
00000000 l    d  .debug_frame	00000000 .debug_frame
00000000 l    d  .debug_str	00000000 .debug_str
00000000 l    d  .debug_loc	00000000 .debug_loc
00000000 l    d  .debug_alt_sim_info	00000000 .debug_alt_sim_info
00000000 l    d  .debug_ranges	00000000 .debug_ranges
00000000 l    df *ABS*	00000000 ../lms_ctr_bsp//obj/HAL/src/crt0.o
00100268 l       .text	00000000 alt_after_alt_main
00000000 l    df *ABS*	00000000 alt_irq_handler.c
00000000 l    df *ABS*	00000000 alt_instruction_exception_entry.c
00000000 l    df *ABS*	00000000 i2c_opencores.c
00000000 l    df *ABS*	00000000 main.c
00000000 l    df *ABS*	00000000 spi_flash_lib.c
00000000 l    df *ABS*	00000000 lib2-divmod.c
00000000 l    df *ABS*	00000000 lib2-mul.c
00000000 l    df *ABS*	00000000 memcpy.c
00000000 l    df *ABS*	00000000 memset.c
00000000 l    df *ABS*	00000000 alt_load.c
00101f5c l     F .text	00000068 alt_load_section
00000000 l    df *ABS*	00000000 alt_main.c
00000000 l    df *ABS*	00000000 alt_usleep.c
00000000 l    df *ABS*	00000000 alt_sys_init.c
001020d8 l     F .text	00000034 alt_dev_reg
0020001c l     O .rwdata	000000c4 uart
00000000 l    df *ABS*	00000000 altera_avalon_spi.c
00000000 l    df *ABS*	00000000 altera_avalon_uart_fd.c
00000000 l    df *ABS*	00000000 altera_avalon_uart_init.c
00102558 l     F .text	0000009c altera_avalon_uart_irq
001025f4 l     F .text	000000e4 altera_avalon_uart_rxirq
001026d8 l     F .text	00000148 altera_avalon_uart_txirq
00000000 l    df *ABS*	00000000 altera_avalon_uart_read.c
00102874 l     F .text	0000003c alt_get_errno
00000000 l    df *ABS*	00000000 altera_avalon_uart_write.c
00102a8c l     F .text	0000003c alt_get_errno
00000000 l    df *ABS*	00000000 alt_busy_sleep.c
00000000 l    df *ABS*	00000000 alt_close.c
00102dcc l     F .text	0000003c alt_get_errno
00000000 l    df *ABS*	00000000 alt_dcache_flush_all.c
00000000 l    df *ABS*	00000000 alt_dev.c
00102f00 l     F .text	0000002c alt_dev_null_write
00000000 l    df *ABS*	00000000 alt_dev_llist_insert.c
00102f2c l     F .text	0000003c alt_get_errno
00000000 l    df *ABS*	00000000 alt_do_ctors.c
00000000 l    df *ABS*	00000000 alt_do_dtors.c
00000000 l    df *ABS*	00000000 alt_errno.c
00000000 l    df *ABS*	00000000 alt_icache_flush_all.c
00000000 l    df *ABS*	00000000 alt_iic.c
00000000 l    df *ABS*	00000000 alt_iic_isr_register.c
00000000 l    df *ABS*	00000000 alt_irq_vars.c
00000000 l    df *ABS*	00000000 alt_release_fd.c
00000000 l    df *ABS*	00000000 altera_nios2_gen2_irq.c
00000000 l    df *ABS*	00000000 atexit.c
00000000 l    df *ABS*	00000000 exit.c
00000000 l    df *ABS*	00000000 impure.c
00200288 l     O .rwdata	00000424 impure_data
00000000 l    df *ABS*	00000000 int_errno.c
00000000 l    df *ABS*	00000000 __atexit.c
00000000 l    df *ABS*	00000000 __call_atexit.c
00000000 l    df *ABS*	00000000 alt_exit.c
00200750 g     O .bss	00000004 alt_instruction_exception_handler
00102048 g     F .text	00000060 alt_main
002008d8 g     O .bss	00000100 alt_irq
00101898 g     F .text	00000178 FlashSpiTransfer
00103804 g       *ABS*	00000000 __flash_rwdata_start
002006b4 g     O .rwdata	00000004 Board_Config_FPGA
00200714 g     O .bss	00000001 block
00200758 g     O .bss	00000040 glEp0Buffer_Tx
00200710 g     O .bss	00000001 dac_val_lsb
002006b8 g     O .rwdata	00000002 converted_val
00200715 g     O .bss	00000001 data_cnt
00200718 g     O .bss	00000004 byte1
0020071c g     O .bss	00000002 dac_data
00103410 g     F .text	00000024 altera_nios2_gen2_irq_init
00100000 g     F .entry	0000000c __reset
002006fc g     O .bss	00000004 address
00100020 g       *ABS*	00000000 __flash_exceptions_start
00200754 g     O .bss	00000004 errno
00200744 g     O .bss	00000004 alt_argv
002086ac g       *ABS*	00000000 _gp
001020a8 g     F .text	00000030 usleep
0020071e g     O .bss	00000001 MCU_retries
00200108 g     O .rwdata	00000180 alt_fd_list
0020071f g     O .bss	00000004 sc_brdg_data
00101cec g     F .text	00000148 memcpy
00100000 g       *ABS*	00000000 __alt_mem_onchip_flash_0_data
001037e8 g       *ABS*	00000000 __DTOR_END__
00103434 g     F .text	0000009c alt_exception_cause_generated_bad_addr
001002e0 g     F .text	00000038 I2C_start
00200000 g       *ABS*	00000000 __alt_mem_onchip_memory2_0
00101c08 g     F .text	00000064 .hidden __udivsi3
002006ac g     O .rwdata	00000004 CFM0EndAddress
002006f0 g     O .bss	00000001 Flash
002006b0 g     O .rwdata	00000004 CFM0StartAddress
001017d0 g     F .text	000000c8 CyFxSpiWaitForStatus
002006d8 g     O .rwdata	00000004 alt_max_fd
002006e4 g     O .rwdata	00000004 _global_impure_ptr
00100404 g     F .text	00000014 set_led
002009d8 g       *ABS*	00000000 __bss_end
0010329c g     F .text	000000f0 alt_iic_isr_register
001024ac g     F .text	000000ac altera_avalon_uart_init
00200724 g     O .bss	00000004 fpga_data
00103250 g     F .text	0000004c alt_ic_irq_enabled
00200728 g     O .bss	00000001 state
0020074c g     O .bss	00000004 alt_irq_active
001000fc g     F .exceptions	000000d4 alt_irq_handler
002000e0 g     O .rwdata	00000028 alt_dev_null
00102ee0 g     F .text	00000020 alt_dcache_flush_all
002006ec g       *ABS*	00000000 __ram_rwdata_end
00100500 g     F .text	00000110 testEEPROM
002006d0 g     O .rwdata	00000008 alt_dev_list
00200708 g     O .bss	00000004 flash_page_data_cnt
0020001c g       *ABS*	00000000 __ram_rodata_end
00101c6c g     F .text	00000058 .hidden __umodsi3
00100610 g     F .text	00000038 boot_from_flash
002009d8 g       *ABS*	00000000 end
0020072c g     O .bss	00000004 last_portion
00102ac8 g     F .text	000001ac altera_avalon_uart_write
001001d0 g     F .exceptions	00000060 alt_instruction_exception_entry
001037e8 g       *ABS*	00000000 __CTOR_LIST__
00201000 g       *ABS*	00000000 __alt_stack_pointer
00200730 g     O .bss	00000004 current_portion
001023fc g     F .text	00000060 altera_avalon_uart_write_fd
0010245c g     F .text	00000050 altera_avalon_uart_close_fd
00101760 g     F .text	00000008 FlashSpiFastRead
00103634 g     F .text	00000180 __call_exitprocs
00200734 g     O .bss	00000001 test
00100230 g     F .text	0000003c _start
001021a0 g     F .text	000001fc alt_avalon_spi_command
00102144 g     F .text	0000005c alt_sys_init
0010351c g     F .text	00000118 __register_exitproc
00101768 g     F .text	00000068 FlashSpiRead
00101cc4 g     F .text	00000028 .hidden __mulsi3
0020001c g       *ABS*	00000000 __ram_rwdata_start
00200000 g       *ABS*	00000000 __ram_rodata_start
00200711 g     O .bss	00000001 dac_val_msb
00102c74 g     F .text	00000158 alt_busy_sleep
002009d8 g       *ABS*	00000000 __alt_stack_base
002006f8 g     O .bss	00000004 byte
00102f68 g     F .text	000000a4 alt_dev_llist_insert
002006ec g       *ABS*	00000000 __bss_start
00101e34 g     F .text	00000128 memset
00100648 g     F .text	000010d8 main
00200748 g     O .bss	00000004 alt_envp
001003d0 g     F .text	00000034 getFifoData
0020073c g     O .bss	00000001 spiFastRead
00100418 g     F .text	000000e8 Configure_LM75
002006dc g     O .rwdata	00000004 alt_errno
00101b10 g     F .text	00000084 .hidden __divsi3
001037e8 g       *ABS*	00000000 __CTOR_END__
00100318 g     F .text	0000002c I2C_read
001037e8 g       *ABS*	00000000 __flash_rodata_start
001037e8 g       *ABS*	00000000 __DTOR_LIST__
0010210c g     F .text	00000038 alt_irq_init
0010338c g     F .text	00000084 alt_release_fd
001034d0 g     F .text	00000014 atexit
002006c0 g     O .rwdata	00000004 LMS_Ctrl_Packet_Rx
002006e8 g     O .rwdata	00000004 _impure_ptr
00200740 g     O .bss	00000004 alt_argc
0010306c g     F .text	00000060 _do_dtors
00100020 g       .exceptions	00000000 alt_irq_entry
002006c8 g     O .rwdata	00000008 alt_fs_list
002006bc g     O .rwdata	00000004 dac_val
0020070c g     O .bss	00000004 flash_page
0010026c g     F .text	00000074 I2C_init
00100020 g       *ABS*	00000000 __ram_exceptions_start
001030ec g     F .text	00000050 alt_ic_isr_register
002006ec g       *ABS*	00000000 _edata
0010239c g     F .text	00000060 altera_avalon_uart_read_fd
002009d8 g       *ABS*	00000000 _end
00100230 g       *ABS*	00000000 __ram_exceptions_end
00200704 g     O .bss	00000004 flash_data_cnt_free
001031c4 g     F .text	0000008c alt_ic_irq_disable
00200735 g     O .bss	00000001 cmd_errors
001034e4 g     F .text	00000038 exit
00101b94 g     F .text	00000074 .hidden __modsi3
00101720 g     F .text	00000040 ReverseBitOrder
00201000 g       *ABS*	00000000 __alt_data_end
00100020 g     F .exceptions	00000000 alt_exception
00200798 g     O .bss	00000100 flash_page_data
00102820 g     F .text	00000054 altera_avalon_uart_close
002006ec g     O .bss	00000004 boot_img_en
001037b4 g     F .text	00000034 _exit
00100380 g     F .text	00000050 Check_many_blocks
00200700 g     O .bss	00000004 flash_data_counter_to_copy
002006c4 g     O .rwdata	00000004 LMS_Ctrl_Packet_Tx
001030cc g     F .text	00000020 alt_icache_flush_all
002006e0 g     O .rwdata	00000004 alt_priority_mask
0010313c g     F .text	00000088 alt_ic_irq_enable
001028b0 g     F .text	000001dc altera_avalon_uart_read
00200738 g     O .bss	00000004 fpga_byte
0010300c g     F .text	00000060 _do_ctors
00102e08 g     F .text	000000d8 close
002006f4 g     O .bss	00000004 word
00101a10 g     F .text	00000100 FlashSpiEraseSector
00101fc4 g     F .text	00000084 alt_load
00100344 g     F .text	0000003c I2C_write
00200898 g     O .bss	00000040 glEp0Buffer_Rx



Disassembly of section .entry:

00100000 <__reset>:
  100000:	00400434 	movhi	at,16
  100004:	08408c14 	ori	at,at,560
  100008:	0800683a 	jmp	at
	...

Disassembly of section .exceptions:

00100020 <alt_exception>:
  100020:	deffed04 	addi	sp,sp,-76
  100024:	dfc00015 	stw	ra,0(sp)
  100028:	d8400215 	stw	at,8(sp)
  10002c:	d8800315 	stw	r2,12(sp)
  100030:	d8c00415 	stw	r3,16(sp)
  100034:	d9000515 	stw	r4,20(sp)
  100038:	d9400615 	stw	r5,24(sp)
  10003c:	d9800715 	stw	r6,28(sp)
  100040:	d9c00815 	stw	r7,32(sp)
  100044:	000b307a 	rdctl	r5,estatus
  100048:	da000915 	stw	r8,36(sp)
  10004c:	da400a15 	stw	r9,40(sp)
  100050:	da800b15 	stw	r10,44(sp)
  100054:	dac00c15 	stw	r11,48(sp)
  100058:	db000d15 	stw	r12,52(sp)
  10005c:	db400e15 	stw	r13,56(sp)
  100060:	db800f15 	stw	r14,60(sp)
  100064:	dbc01015 	stw	r15,64(sp)
  100068:	d9401115 	stw	r5,68(sp)
  10006c:	ebffff04 	addi	r15,ea,-4
  100070:	dbc01215 	stw	r15,72(sp)
  100074:	0009313a 	rdctl	r4,ipending
  100078:	2880004c 	andi	r2,r5,1
  10007c:	10000326 	beq	r2,zero,10008c <alt_exception+0x6c>
  100080:	20000226 	beq	r4,zero,10008c <alt_exception+0x6c>
  100084:	01000fc0 	call	1000fc <alt_irq_handler>
  100088:	00000706 	br	1000a8 <alt_exception+0x88>
  10008c:	df401215 	stw	ea,72(sp)
  100090:	e8bfff17 	ldw	r2,-4(ea)
  100094:	e93fff04 	addi	r4,ea,-4
  100098:	01001d00 	call	1001d0 <alt_instruction_exception_entry>
  10009c:	1000021e 	bne	r2,zero,1000a8 <alt_exception+0x88>
  1000a0:	ebffff04 	addi	r15,ea,-4
  1000a4:	dbc01215 	stw	r15,72(sp)
  1000a8:	d9401117 	ldw	r5,68(sp)
  1000ac:	df401217 	ldw	ea,72(sp)
  1000b0:	dfc00017 	ldw	ra,0(sp)
  1000b4:	2801707a 	wrctl	estatus,r5
  1000b8:	d8400217 	ldw	at,8(sp)
  1000bc:	d8800317 	ldw	r2,12(sp)
  1000c0:	d8c00417 	ldw	r3,16(sp)
  1000c4:	d9000517 	ldw	r4,20(sp)
  1000c8:	d9400617 	ldw	r5,24(sp)
  1000cc:	d9800717 	ldw	r6,28(sp)
  1000d0:	d9c00817 	ldw	r7,32(sp)
  1000d4:	da000917 	ldw	r8,36(sp)
  1000d8:	da400a17 	ldw	r9,40(sp)
  1000dc:	da800b17 	ldw	r10,44(sp)
  1000e0:	dac00c17 	ldw	r11,48(sp)
  1000e4:	db000d17 	ldw	r12,52(sp)
  1000e8:	db400e17 	ldw	r13,56(sp)
  1000ec:	db800f17 	ldw	r14,60(sp)
  1000f0:	dbc01017 	ldw	r15,64(sp)
  1000f4:	dec01304 	addi	sp,sp,76
  1000f8:	ef80083a 	eret

001000fc <alt_irq_handler>:
  1000fc:	defff904 	addi	sp,sp,-28
  100100:	dfc00615 	stw	ra,24(sp)
  100104:	df000515 	stw	fp,20(sp)
  100108:	df000504 	addi	fp,sp,20
  10010c:	0001883a 	nop
  100110:	0005313a 	rdctl	r2,ipending
  100114:	e0bffe15 	stw	r2,-8(fp)
  100118:	e0bffe17 	ldw	r2,-8(fp)
  10011c:	e0bffb15 	stw	r2,-20(fp)
  100120:	e03ffd15 	stw	zero,-12(fp)
  100124:	00800044 	movi	r2,1
  100128:	e0bffc15 	stw	r2,-16(fp)
  10012c:	e0fffb17 	ldw	r3,-20(fp)
  100130:	e0bffc17 	ldw	r2,-16(fp)
  100134:	1884703a 	and	r2,r3,r2
  100138:	10001426 	beq	r2,zero,10018c <alt_irq_handler+0x90>
  10013c:	00800834 	movhi	r2,32
  100140:	10823604 	addi	r2,r2,2264
  100144:	e0fffd17 	ldw	r3,-12(fp)
  100148:	180690fa 	slli	r3,r3,3
  10014c:	10c5883a 	add	r2,r2,r3
  100150:	10c00017 	ldw	r3,0(r2)
  100154:	00800834 	movhi	r2,32
  100158:	10823604 	addi	r2,r2,2264
  10015c:	e13ffd17 	ldw	r4,-12(fp)
  100160:	200890fa 	slli	r4,r4,3
  100164:	1105883a 	add	r2,r2,r4
  100168:	10800104 	addi	r2,r2,4
  10016c:	10800017 	ldw	r2,0(r2)
  100170:	1009883a 	mov	r4,r2
  100174:	183ee83a 	callr	r3
  100178:	0001883a 	nop
  10017c:	0005313a 	rdctl	r2,ipending
  100180:	e0bfff15 	stw	r2,-4(fp)
  100184:	e0bfff17 	ldw	r2,-4(fp)
  100188:	00000706 	br	1001a8 <alt_irq_handler+0xac>
  10018c:	e0bffc17 	ldw	r2,-16(fp)
  100190:	1085883a 	add	r2,r2,r2
  100194:	e0bffc15 	stw	r2,-16(fp)
  100198:	e0bffd17 	ldw	r2,-12(fp)
  10019c:	10800044 	addi	r2,r2,1
  1001a0:	e0bffd15 	stw	r2,-12(fp)
  1001a4:	003fe106 	br	10012c <_gp+0xffef7a80>
  1001a8:	e0bffb15 	stw	r2,-20(fp)
  1001ac:	e0bffb17 	ldw	r2,-20(fp)
  1001b0:	103fdb1e 	bne	r2,zero,100120 <_gp+0xffef7a74>
  1001b4:	0001883a 	nop
  1001b8:	0001883a 	nop
  1001bc:	e037883a 	mov	sp,fp
  1001c0:	dfc00117 	ldw	ra,4(sp)
  1001c4:	df000017 	ldw	fp,0(sp)
  1001c8:	dec00204 	addi	sp,sp,8
  1001cc:	f800283a 	ret

001001d0 <alt_instruction_exception_entry>:
  1001d0:	defffb04 	addi	sp,sp,-20
  1001d4:	dfc00415 	stw	ra,16(sp)
  1001d8:	df000315 	stw	fp,12(sp)
  1001dc:	df000304 	addi	fp,sp,12
  1001e0:	e13fff15 	stw	r4,-4(fp)
  1001e4:	00bfffc4 	movi	r2,-1
  1001e8:	e0bffd15 	stw	r2,-12(fp)
  1001ec:	e03ffe15 	stw	zero,-8(fp)
  1001f0:	d0a02917 	ldw	r2,-32604(gp)
  1001f4:	10000726 	beq	r2,zero,100214 <alt_instruction_exception_entry+0x44>
  1001f8:	d0a02917 	ldw	r2,-32604(gp)
  1001fc:	e0fffd17 	ldw	r3,-12(fp)
  100200:	e1bffe17 	ldw	r6,-8(fp)
  100204:	e17fff17 	ldw	r5,-4(fp)
  100208:	1809883a 	mov	r4,r3
  10020c:	103ee83a 	callr	r2
  100210:	00000206 	br	10021c <alt_instruction_exception_entry+0x4c>
  100214:	003da03a 	break	0
  100218:	0005883a 	mov	r2,zero
  10021c:	e037883a 	mov	sp,fp
  100220:	dfc00117 	ldw	ra,4(sp)
  100224:	df000017 	ldw	fp,0(sp)
  100228:	dec00204 	addi	sp,sp,8
  10022c:	f800283a 	ret

Disassembly of section .text:

00100230 <_start>:
  100230:	06c00834 	movhi	sp,32
  100234:	dec40014 	ori	sp,sp,4096
  100238:	06800834 	movhi	gp,32
  10023c:	d6a1ab14 	ori	gp,gp,34476
  100240:	00800834 	movhi	r2,32
  100244:	1081bb14 	ori	r2,r2,1772
  100248:	00c00834 	movhi	r3,32
  10024c:	18c27614 	ori	r3,r3,2520
  100250:	10c00326 	beq	r2,r3,100260 <_start+0x30>
  100254:	10000015 	stw	zero,0(r2)
  100258:	10800104 	addi	r2,r2,4
  10025c:	10fffd36 	bltu	r2,r3,100254 <_gp+0xffef7ba8>
  100260:	0101fc40 	call	101fc4 <alt_load>
  100264:	01020480 	call	102048 <alt_main>

00100268 <alt_after_alt_main>:
  100268:	003fff06 	br	100268 <_gp+0xffef7bbc>

0010026c <I2C_init>:
  10026c:	defffd04 	addi	sp,sp,-12
  100270:	dc400115 	stw	r17,4(sp)
  100274:	dc000015 	stw	r16,0(sp)
  100278:	2823883a 	mov	r17,r5
  10027c:	2021883a 	mov	r16,r4
  100280:	01400144 	movi	r5,5
  100284:	3009883a 	mov	r4,r6
  100288:	dfc00215 	stw	ra,8(sp)
  10028c:	0101cc40 	call	101cc4 <__mulsi3>
  100290:	100b883a 	mov	r5,r2
  100294:	8809883a 	mov	r4,r17
  100298:	0101c080 	call	101c08 <__udivsi3>
  10029c:	10bfffc4 	addi	r2,r2,-1
  1002a0:	80c00204 	addi	r3,r16,8
  1002a4:	18000035 	stwio	zero,0(r3)
  1002a8:	01000044 	movi	r4,1
  1002ac:	81000435 	stwio	r4,16(r16)
  1002b0:	11003fcc 	andi	r4,r2,255
  1002b4:	81000035 	stwio	r4,0(r16)
  1002b8:	1004d23a 	srli	r2,r2,8
  1002bc:	10803fcc 	andi	r2,r2,255
  1002c0:	80800135 	stwio	r2,4(r16)
  1002c4:	00802004 	movi	r2,128
  1002c8:	18800035 	stwio	r2,0(r3)
  1002cc:	dfc00217 	ldw	ra,8(sp)
  1002d0:	dc400117 	ldw	r17,4(sp)
  1002d4:	dc000017 	ldw	r16,0(sp)
  1002d8:	dec00304 	addi	sp,sp,12
  1002dc:	f800283a 	ret

001002e0 <I2C_start>:
  1002e0:	3180004c 	andi	r6,r6,1
  1002e4:	294b883a 	add	r5,r5,r5
  1002e8:	298b883a 	add	r5,r5,r6
  1002ec:	21400335 	stwio	r5,12(r4)
  1002f0:	21000404 	addi	r4,r4,16
  1002f4:	00802404 	movi	r2,144
  1002f8:	20800035 	stwio	r2,0(r4)
  1002fc:	20800037 	ldwio	r2,0(r4)
  100300:	1080008c 	andi	r2,r2,2
  100304:	103ffd1e 	bne	r2,zero,1002fc <_gp+0xffef7c50>
  100308:	20800037 	ldwio	r2,0(r4)
  10030c:	1004d1fa 	srli	r2,r2,7
  100310:	1080004c 	andi	r2,r2,1
  100314:	f800283a 	ret

00100318 <I2C_read>:
  100318:	20c00404 	addi	r3,r4,16
  10031c:	28000226 	beq	r5,zero,100328 <I2C_read+0x10>
  100320:	00801a04 	movi	r2,104
  100324:	00000106 	br	10032c <I2C_read+0x14>
  100328:	00800804 	movi	r2,32
  10032c:	18800035 	stwio	r2,0(r3)
  100330:	18800037 	ldwio	r2,0(r3)
  100334:	1080008c 	andi	r2,r2,2
  100338:	103ffd1e 	bne	r2,zero,100330 <_gp+0xffef7c84>
  10033c:	20800337 	ldwio	r2,12(r4)
  100340:	f800283a 	ret

00100344 <I2C_write>:
  100344:	29403fcc 	andi	r5,r5,255
  100348:	21400335 	stwio	r5,12(r4)
  10034c:	21000404 	addi	r4,r4,16
  100350:	30000226 	beq	r6,zero,10035c <I2C_write+0x18>
  100354:	00801404 	movi	r2,80
  100358:	00000106 	br	100360 <I2C_write+0x1c>
  10035c:	00800404 	movi	r2,16
  100360:	20800035 	stwio	r2,0(r4)
  100364:	20800037 	ldwio	r2,0(r4)
  100368:	1080008c 	andi	r2,r2,2
  10036c:	103ffd1e 	bne	r2,zero,100364 <_gp+0xffef7cb8>
  100370:	20800037 	ldwio	r2,0(r4)
  100374:	1004d1fa 	srli	r2,r2,7
  100378:	1080004c 	andi	r2,r2,1
  10037c:	f800283a 	ret

00100380 <Check_many_blocks>:
  100380:	defffe04 	addi	sp,sp,-8
  100384:	dc000015 	stw	r16,0(sp)
  100388:	d4200517 	ldw	r16,-32748(gp)
  10038c:	21403fcc 	andi	r5,r4,255
  100390:	01000e04 	movi	r4,56
  100394:	dfc00115 	stw	ra,4(sp)
  100398:	0101c080 	call	101c08 <__udivsi3>
  10039c:	80c00083 	ldbu	r3,2(r16)
  1003a0:	10803fcc 	andi	r2,r2,255
  1003a4:	10c0052e 	bgeu	r2,r3,1003bc <Check_many_blocks+0x3c>
  1003a8:	d0a00617 	ldw	r2,-32744(gp)
  1003ac:	00c00104 	movi	r3,4
  1003b0:	10c00045 	stb	r3,1(r2)
  1003b4:	00800044 	movi	r2,1
  1003b8:	00000106 	br	1003c0 <Check_many_blocks+0x40>
  1003bc:	0005883a 	mov	r2,zero
  1003c0:	dfc00117 	ldw	ra,4(sp)
  1003c4:	dc000017 	ldw	r16,0(sp)
  1003c8:	dec00204 	addi	sp,sp,8
  1003cc:	f800283a 	ret

001003d0 <getFifoData>:
  1003d0:	29403fcc 	andi	r5,r5,255
  1003d4:	280ad0ba 	srli	r5,r5,2
  1003d8:	01800834 	movhi	r6,32
  1003dc:	0005883a 	mov	r2,zero
  1003e0:	31884104 	addi	r6,r6,8452
  1003e4:	10c03fcc 	andi	r3,r2,255
  1003e8:	19400526 	beq	r3,r5,100400 <getFifoData+0x30>
  1003ec:	30c00037 	ldwio	r3,0(r6)
  1003f0:	20c00015 	stw	r3,0(r4)
  1003f4:	10800044 	addi	r2,r2,1
  1003f8:	21000104 	addi	r4,r4,4
  1003fc:	003ff906 	br	1003e4 <_gp+0xffef7d38>
  100400:	f800283a 	ret

00100404 <set_led>:
  100404:	00800834 	movhi	r2,32
  100408:	21003fcc 	andi	r4,r4,255
  10040c:	10883804 	addi	r2,r2,8416
  100410:	11000035 	stwio	r4,0(r2)
  100414:	f800283a 	ret

00100418 <Configure_LM75>:
  100418:	defffc04 	addi	sp,sp,-16
  10041c:	dc000015 	stw	r16,0(sp)
  100420:	04000834 	movhi	r16,32
  100424:	84082804 	addi	r16,r16,8352
  100428:	dc800215 	stw	r18,8(sp)
  10042c:	04801204 	movi	r18,72
  100430:	900b883a 	mov	r5,r18
  100434:	8009883a 	mov	r4,r16
  100438:	000d883a 	mov	r6,zero
  10043c:	dfc00315 	stw	ra,12(sp)
  100440:	dc400115 	stw	r17,4(sp)
  100444:	01002e00 	call	1002e0 <I2C_start>
  100448:	04400044 	movi	r17,1
  10044c:	880b883a 	mov	r5,r17
  100450:	8009883a 	mov	r4,r16
  100454:	000d883a 	mov	r6,zero
  100458:	01003440 	call	100344 <I2C_write>
  10045c:	880d883a 	mov	r6,r17
  100460:	8009883a 	mov	r4,r16
  100464:	01400104 	movi	r5,4
  100468:	01003440 	call	100344 <I2C_write>
  10046c:	900b883a 	mov	r5,r18
  100470:	8009883a 	mov	r4,r16
  100474:	000d883a 	mov	r6,zero
  100478:	01002e00 	call	1002e0 <I2C_start>
  10047c:	8009883a 	mov	r4,r16
  100480:	000d883a 	mov	r6,zero
  100484:	01400084 	movi	r5,2
  100488:	01003440 	call	100344 <I2C_write>
  10048c:	8009883a 	mov	r4,r16
  100490:	000d883a 	mov	r6,zero
  100494:	01400b44 	movi	r5,45
  100498:	01003440 	call	100344 <I2C_write>
  10049c:	880d883a 	mov	r6,r17
  1004a0:	8009883a 	mov	r4,r16
  1004a4:	000b883a 	mov	r5,zero
  1004a8:	01003440 	call	100344 <I2C_write>
  1004ac:	900b883a 	mov	r5,r18
  1004b0:	8009883a 	mov	r4,r16
  1004b4:	000d883a 	mov	r6,zero
  1004b8:	01002e00 	call	1002e0 <I2C_start>
  1004bc:	8009883a 	mov	r4,r16
  1004c0:	000d883a 	mov	r6,zero
  1004c4:	014000c4 	movi	r5,3
  1004c8:	01003440 	call	100344 <I2C_write>
  1004cc:	8009883a 	mov	r4,r16
  1004d0:	000d883a 	mov	r6,zero
  1004d4:	01400dc4 	movi	r5,55
  1004d8:	01003440 	call	100344 <I2C_write>
  1004dc:	880d883a 	mov	r6,r17
  1004e0:	000b883a 	mov	r5,zero
  1004e4:	8009883a 	mov	r4,r16
  1004e8:	dfc00317 	ldw	ra,12(sp)
  1004ec:	dc800217 	ldw	r18,8(sp)
  1004f0:	dc400117 	ldw	r17,4(sp)
  1004f4:	dc000017 	ldw	r16,0(sp)
  1004f8:	dec00404 	addi	sp,sp,16
  1004fc:	01003441 	jmpi	100344 <I2C_write>

00100500 <testEEPROM>:
  100500:	defffc04 	addi	sp,sp,-16
  100504:	dc000015 	stw	r16,0(sp)
  100508:	04000834 	movhi	r16,32
  10050c:	84082804 	addi	r16,r16,8352
  100510:	dc800215 	stw	r18,8(sp)
  100514:	04801404 	movi	r18,80
  100518:	900b883a 	mov	r5,r18
  10051c:	8009883a 	mov	r4,r16
  100520:	000d883a 	mov	r6,zero
  100524:	dfc00315 	stw	ra,12(sp)
  100528:	dc400115 	stw	r17,4(sp)
  10052c:	01002e00 	call	1002e0 <I2C_start>
  100530:	8009883a 	mov	r4,r16
  100534:	000d883a 	mov	r6,zero
  100538:	000b883a 	mov	r5,zero
  10053c:	01003440 	call	100344 <I2C_write>
  100540:	8009883a 	mov	r4,r16
  100544:	000d883a 	mov	r6,zero
  100548:	000b883a 	mov	r5,zero
  10054c:	04400044 	movi	r17,1
  100550:	01003440 	call	100344 <I2C_write>
  100554:	880d883a 	mov	r6,r17
  100558:	900b883a 	mov	r5,r18
  10055c:	8009883a 	mov	r4,r16
  100560:	01002e00 	call	1002e0 <I2C_start>
  100564:	880b883a 	mov	r5,r17
  100568:	8009883a 	mov	r4,r16
  10056c:	01003180 	call	100318 <I2C_read>
  100570:	900b883a 	mov	r5,r18
  100574:	8009883a 	mov	r4,r16
  100578:	000d883a 	mov	r6,zero
  10057c:	01002e00 	call	1002e0 <I2C_start>
  100580:	8009883a 	mov	r4,r16
  100584:	000d883a 	mov	r6,zero
  100588:	000b883a 	mov	r5,zero
  10058c:	01003440 	call	100344 <I2C_write>
  100590:	880b883a 	mov	r5,r17
  100594:	8009883a 	mov	r4,r16
  100598:	000d883a 	mov	r6,zero
  10059c:	01003440 	call	100344 <I2C_write>
  1005a0:	880d883a 	mov	r6,r17
  1005a4:	8009883a 	mov	r4,r16
  1005a8:	01401684 	movi	r5,90
  1005ac:	01003440 	call	100344 <I2C_write>
  1005b0:	900b883a 	mov	r5,r18
  1005b4:	8009883a 	mov	r4,r16
  1005b8:	000d883a 	mov	r6,zero
  1005bc:	01002e00 	call	1002e0 <I2C_start>
  1005c0:	8009883a 	mov	r4,r16
  1005c4:	000d883a 	mov	r6,zero
  1005c8:	000b883a 	mov	r5,zero
  1005cc:	01003440 	call	100344 <I2C_write>
  1005d0:	880b883a 	mov	r5,r17
  1005d4:	8009883a 	mov	r4,r16
  1005d8:	000d883a 	mov	r6,zero
  1005dc:	01003440 	call	100344 <I2C_write>
  1005e0:	900b883a 	mov	r5,r18
  1005e4:	8009883a 	mov	r4,r16
  1005e8:	880d883a 	mov	r6,r17
  1005ec:	01002e00 	call	1002e0 <I2C_start>
  1005f0:	880b883a 	mov	r5,r17
  1005f4:	8009883a 	mov	r4,r16
  1005f8:	dfc00317 	ldw	ra,12(sp)
  1005fc:	dc800217 	ldw	r18,8(sp)
  100600:	dc400117 	ldw	r17,4(sp)
  100604:	dc000017 	ldw	r16,0(sp)
  100608:	dec00404 	addi	sp,sp,16
  10060c:	01003181 	jmpi	100318 <I2C_read>

00100610 <boot_from_flash>:
  100610:	00800834 	movhi	r2,32
  100614:	10883104 	addi	r2,r2,8388
  100618:	00c000c4 	movi	r3,3
  10061c:	10c00035 	stwio	r3,0(r2)
  100620:	01000834 	movhi	r4,32
  100624:	21083304 	addi	r4,r4,8396
  100628:	00800044 	movi	r2,1
  10062c:	20c00037 	ldwio	r3,0(r4)
  100630:	18bffe26 	beq	r3,r2,10062c <_gp+0xffef7f80>
  100634:	00800834 	movhi	r2,32
  100638:	10883004 	addi	r2,r2,8384
  10063c:	00c00044 	movi	r3,1
  100640:	10c00035 	stwio	r3,0(r2)
  100644:	f800283a 	ret

00100648 <main>:
  100648:	defff204 	addi	sp,sp,-56
  10064c:	dc000415 	stw	r16,16(sp)
  100650:	04000834 	movhi	r16,32
  100654:	dfc00d15 	stw	ra,52(sp)
  100658:	df000c15 	stw	fp,48(sp)
  10065c:	ddc00b15 	stw	r23,44(sp)
  100660:	dd800a15 	stw	r22,40(sp)
  100664:	dd400915 	stw	r21,36(sp)
  100668:	dd000815 	stw	r20,32(sp)
  10066c:	dcc00715 	stw	r19,28(sp)
  100670:	dc800615 	stw	r18,24(sp)
  100674:	dc400515 	stw	r17,20(sp)
  100678:	84081804 	addi	r16,r16,8288
  10067c:	00800184 	movi	r2,6
  100680:	80800035 	stwio	r2,0(r16)
  100684:	008001c4 	movi	r2,7
  100688:	80800035 	stwio	r2,0(r16)
  10068c:	d0a00417 	ldw	r2,-32752(gp)
  100690:	01000834 	movhi	r4,32
  100694:	d1e01c04 	addi	r7,gp,-32656
  100698:	1006d0ba 	srli	r3,r2,2
  10069c:	100491ba 	slli	r2,r2,6
  1006a0:	01800084 	movi	r6,2
  1006a4:	000b883a 	mov	r5,zero
  1006a8:	21080804 	addi	r4,r4,8224
  1006ac:	d8000215 	stw	zero,8(sp)
  1006b0:	d8000115 	stw	zero,4(sp)
  1006b4:	d8000015 	stw	zero,0(sp)
  1006b8:	d0e01c05 	stb	r3,-32656(gp)
  1006bc:	d0a01c45 	stb	r2,-32655(gp)
  1006c0:	01021a00 	call	1021a0 <alt_avalon_spi_command>
  1006c4:	018000b4 	movhi	r6,2
  1006c8:	014098b4 	movhi	r5,610
  1006cc:	01000834 	movhi	r4,32
  1006d0:	31a1a804 	addi	r6,r6,-31072
  1006d4:	29568004 	addi	r5,r5,23040
  1006d8:	21082804 	addi	r4,r4,8352
  1006dc:	05000834 	movhi	r20,32
  1006e0:	04800834 	movhi	r18,32
  1006e4:	04fe0034 	movhi	r19,63488
  1006e8:	04400834 	movhi	r17,32
  1006ec:	d8800315 	stw	r2,12(sp)
  1006f0:	a5084204 	addi	r20,r20,8456
  1006f4:	010026c0 	call	10026c <I2C_init>
  1006f8:	94884404 	addi	r18,r18,8464
  1006fc:	01004180 	call	100418 <Configure_LM75>
  100700:	9cffffc4 	addi	r19,r19,-1
  100704:	8c484504 	addi	r17,r17,8468
  100708:	a0800037 	ldwio	r2,0(r20)
  10070c:	d8800315 	stw	r2,12(sp)
  100710:	d8800317 	ldw	r2,12(sp)
  100714:	1080004c 	andi	r2,r2,1
  100718:	103ffb1e 	bne	r2,zero,100708 <_gp+0xffef805c>
  10071c:	01000834 	movhi	r4,32
  100720:	01401004 	movi	r5,64
  100724:	21022604 	addi	r4,r4,2200
  100728:	01003d00 	call	1003d0 <getFifoData>
  10072c:	01000834 	movhi	r4,32
  100730:	000b883a 	mov	r5,zero
  100734:	2101d604 	addi	r4,r4,1880
  100738:	01801004 	movi	r6,64
  10073c:	0101e340 	call	101e34 <memset>
  100740:	d1600517 	ldw	r5,-32748(gp)
  100744:	d0202245 	stb	zero,-32631(gp)
  100748:	d0a00617 	ldw	r2,-32744(gp)
  10074c:	28c00003 	ldbu	r3,0(r5)
  100750:	010014c4 	movi	r4,83
  100754:	10c00005 	stb	r3,0(r2)
  100758:	28c00083 	ldbu	r3,2(r5)
  10075c:	10c00085 	stb	r3,2(r2)
  100760:	28c000c3 	ldbu	r3,3(r5)
  100764:	10c000c5 	stb	r3,3(r2)
  100768:	00c000c4 	movi	r3,3
  10076c:	10c00045 	stb	r3,1(r2)
  100770:	28c00003 	ldbu	r3,0(r5)
  100774:	19027f26 	beq	r3,r4,101174 <main+0xb2c>
  100778:	20c00c36 	bltu	r4,r3,1007ac <main+0x164>
  10077c:	01000844 	movi	r4,33
  100780:	19004726 	beq	r3,r4,1008a0 <main+0x258>
  100784:	20c00436 	bltu	r4,r3,100798 <main+0x150>
  100788:	18001a26 	beq	r3,zero,1007f4 <main+0x1ac>
  10078c:	01000804 	movi	r4,32
  100790:	19002826 	beq	r3,r4,100834 <main+0x1ec>
  100794:	0003d606 	br	1016f0 <main+0x10a8>
  100798:	01000884 	movi	r4,34
  10079c:	19006026 	beq	r3,r4,100920 <main+0x2d8>
  1007a0:	01000b04 	movi	r4,44
  1007a4:	19030a26 	beq	r3,r4,1013d0 <main+0xd88>
  1007a8:	0003d106 	br	1016f0 <main+0x10a8>
  1007ac:	01001844 	movi	r4,97
  1007b0:	19023e26 	beq	r3,r4,1010ac <main+0xa64>
  1007b4:	20c00536 	bltu	r4,r3,1007cc <main+0x184>
  1007b8:	01001544 	movi	r4,85
  1007bc:	19007b26 	beq	r3,r4,1009ac <main+0x364>
  1007c0:	01001584 	movi	r4,86
  1007c4:	19009926 	beq	r3,r4,100a2c <main+0x3e4>
  1007c8:	0003c906 	br	1016f0 <main+0x10a8>
  1007cc:	01002304 	movi	r4,140
  1007d0:	1900bc26 	beq	r3,r4,100ac4 <main+0x47c>
  1007d4:	01002344 	movi	r4,141
  1007d8:	19017226 	beq	r3,r4,100da4 <main+0x75c>
  1007dc:	01001884 	movi	r4,98
  1007e0:	1903c31e 	bne	r3,r4,1016f0 <main+0x10a8>
  1007e4:	d0201a05 	stb	zero,-32664(gp)
  1007e8:	05400044 	movi	r21,1
  1007ec:	05801404 	movi	r22,80
  1007f0:	0001ee06 	br	100fac <main+0x964>
  1007f4:	00c00144 	movi	r3,5
  1007f8:	10c00205 	stb	r3,8(r2)
  1007fc:	00c00444 	movi	r3,17
  100800:	10c00245 	stb	r3,9(r2)
  100804:	00c00044 	movi	r3,1
  100808:	10c00285 	stb	r3,10(r2)
  10080c:	100002c5 	stb	zero,11(r2)
  100810:	10c00305 	stb	r3,12(r2)
  100814:	10c00045 	stb	r3,1(r2)
  100818:	01800834 	movhi	r6,32
  10081c:	01000834 	movhi	r4,32
  100820:	0005883a 	mov	r2,zero
  100824:	3181d604 	addi	r6,r6,1880
  100828:	21084004 	addi	r4,r4,8448
  10082c:	00c01004 	movi	r3,64
  100830:	0003b106 	br	1016f8 <main+0x10b0>
  100834:	28800203 	ldbu	r2,8(r5)
  100838:	00c00044 	movi	r3,1
  10083c:	10c01026 	beq	r2,r3,100880 <main+0x238>
  100840:	10001226 	beq	r2,zero,10088c <main+0x244>
  100844:	00c00084 	movi	r3,2
  100848:	10c0121e 	bne	r2,r3,100894 <main+0x24c>
  10084c:	00800184 	movi	r2,6
  100850:	80800035 	stwio	r2,0(r16)
  100854:	0001883a 	nop
  100858:	0001883a 	nop
  10085c:	0001883a 	nop
  100860:	0001883a 	nop
  100864:	0001883a 	nop
  100868:	0001883a 	nop
  10086c:	0001883a 	nop
  100870:	0001883a 	nop
  100874:	0001883a 	nop
  100878:	0001883a 	nop
  10087c:	00000306 	br	10088c <main+0x244>
  100880:	00800184 	movi	r2,6
  100884:	80800035 	stwio	r2,0(r16)
  100888:	00020506 	br	1010a0 <main+0xa58>
  10088c:	008001c4 	movi	r2,7
  100890:	003ffc06 	br	100884 <_gp+0xffef81d8>
  100894:	00800044 	movi	r2,1
  100898:	d0a02245 	stb	r2,-32631(gp)
  10089c:	00020006 	br	1010a0 <main+0xa58>
  1008a0:	01000104 	movi	r4,4
  1008a4:	01003800 	call	100380 <Check_many_blocks>
  1008a8:	10803fcc 	andi	r2,r2,255
  1008ac:	103fda1e 	bne	r2,zero,100818 <_gp+0xffef816c>
  1008b0:	d0201a05 	stb	zero,-32664(gp)
  1008b4:	057fe004 	movi	r21,-128
  1008b8:	d1e00517 	ldw	r7,-32748(gp)
  1008bc:	d0a01a03 	ldbu	r2,-32664(gp)
  1008c0:	38c00083 	ldbu	r3,2(r7)
  1008c4:	10c1f62e 	bgeu	r2,r3,1010a0 <main+0xa58>
  1008c8:	1085883a 	add	r2,r2,r2
  1008cc:	1085883a 	add	r2,r2,r2
  1008d0:	3887883a 	add	r3,r7,r2
  1008d4:	18c00204 	addi	r3,r3,8
  1008d8:	19000003 	ldbu	r4,0(r3)
  1008dc:	10800204 	addi	r2,r2,8
  1008e0:	388f883a 	add	r7,r7,r2
  1008e4:	2548b03a 	or	r4,r4,r21
  1008e8:	19000005 	stb	r4,0(r3)
  1008ec:	01000834 	movhi	r4,32
  1008f0:	d8000215 	stw	zero,8(sp)
  1008f4:	d8000115 	stw	zero,4(sp)
  1008f8:	d8000015 	stw	zero,0(sp)
  1008fc:	01800104 	movi	r6,4
  100900:	000b883a 	mov	r5,zero
  100904:	21081004 	addi	r4,r4,8256
  100908:	01021a00 	call	1021a0 <alt_avalon_spi_command>
  10090c:	d8800315 	stw	r2,12(sp)
  100910:	d0a01a03 	ldbu	r2,-32664(gp)
  100914:	10800044 	addi	r2,r2,1
  100918:	d0a01a05 	stb	r2,-32664(gp)
  10091c:	003fe606 	br	1008b8 <_gp+0xffef820c>
  100920:	01000104 	movi	r4,4
  100924:	01003800 	call	100380 <Check_many_blocks>
  100928:	10803fcc 	andi	r2,r2,255
  10092c:	103fba1e 	bne	r2,zero,100818 <_gp+0xffef816c>
  100930:	d0201a05 	stb	zero,-32664(gp)
  100934:	05400084 	movi	r21,2
  100938:	d1200517 	ldw	r4,-32748(gp)
  10093c:	d0a01a03 	ldbu	r2,-32664(gp)
  100940:	d1a00617 	ldw	r6,-32744(gp)
  100944:	20c00083 	ldbu	r3,2(r4)
  100948:	10c05b2e 	bgeu	r2,r3,100ab8 <main+0x470>
  10094c:	1085883a 	add	r2,r2,r2
  100950:	2087883a 	add	r3,r4,r2
  100954:	18c00204 	addi	r3,r3,8
  100958:	19400003 	ldbu	r5,0(r3)
  10095c:	11c00204 	addi	r7,r2,8
  100960:	1085883a 	add	r2,r2,r2
  100964:	29401fcc 	andi	r5,r5,127
  100968:	10800284 	addi	r2,r2,10
  10096c:	19400005 	stb	r5,0(r3)
  100970:	3085883a 	add	r2,r6,r2
  100974:	21cf883a 	add	r7,r4,r7
  100978:	01000834 	movhi	r4,32
  10097c:	d8000215 	stw	zero,8(sp)
  100980:	d8800115 	stw	r2,4(sp)
  100984:	dd400015 	stw	r21,0(sp)
  100988:	01800084 	movi	r6,2
  10098c:	000b883a 	mov	r5,zero
  100990:	21081004 	addi	r4,r4,8256
  100994:	01021a00 	call	1021a0 <alt_avalon_spi_command>
  100998:	d8800315 	stw	r2,12(sp)
  10099c:	d0a01a03 	ldbu	r2,-32664(gp)
  1009a0:	10800044 	addi	r2,r2,1
  1009a4:	d0a01a05 	stb	r2,-32664(gp)
  1009a8:	003fe306 	br	100938 <_gp+0xffef828c>
  1009ac:	01000104 	movi	r4,4
  1009b0:	01003800 	call	100380 <Check_many_blocks>
  1009b4:	10803fcc 	andi	r2,r2,255
  1009b8:	103f971e 	bne	r2,zero,100818 <_gp+0xffef816c>
  1009bc:	d0201a05 	stb	zero,-32664(gp)
  1009c0:	057fe004 	movi	r21,-128
  1009c4:	d1e00517 	ldw	r7,-32748(gp)
  1009c8:	d0a01a03 	ldbu	r2,-32664(gp)
  1009cc:	38c00083 	ldbu	r3,2(r7)
  1009d0:	10c1b32e 	bgeu	r2,r3,1010a0 <main+0xa58>
  1009d4:	1085883a 	add	r2,r2,r2
  1009d8:	1085883a 	add	r2,r2,r2
  1009dc:	3887883a 	add	r3,r7,r2
  1009e0:	18c00204 	addi	r3,r3,8
  1009e4:	19000003 	ldbu	r4,0(r3)
  1009e8:	10800204 	addi	r2,r2,8
  1009ec:	388f883a 	add	r7,r7,r2
  1009f0:	2548b03a 	or	r4,r4,r21
  1009f4:	19000005 	stb	r4,0(r3)
  1009f8:	01000834 	movhi	r4,32
  1009fc:	d8000215 	stw	zero,8(sp)
  100a00:	d8000115 	stw	zero,4(sp)
  100a04:	d8000015 	stw	zero,0(sp)
  100a08:	01800104 	movi	r6,4
  100a0c:	01400044 	movi	r5,1
  100a10:	21081004 	addi	r4,r4,8256
  100a14:	01021a00 	call	1021a0 <alt_avalon_spi_command>
  100a18:	d8800315 	stw	r2,12(sp)
  100a1c:	d0a01a03 	ldbu	r2,-32664(gp)
  100a20:	10800044 	addi	r2,r2,1
  100a24:	d0a01a05 	stb	r2,-32664(gp)
  100a28:	003fe606 	br	1009c4 <_gp+0xffef8318>
  100a2c:	01000104 	movi	r4,4
  100a30:	01003800 	call	100380 <Check_many_blocks>
  100a34:	10803fcc 	andi	r2,r2,255
  100a38:	103f771e 	bne	r2,zero,100818 <_gp+0xffef816c>
  100a3c:	d0201a05 	stb	zero,-32664(gp)
  100a40:	05400084 	movi	r21,2
  100a44:	d1200517 	ldw	r4,-32748(gp)
  100a48:	d0a01a03 	ldbu	r2,-32664(gp)
  100a4c:	d1a00617 	ldw	r6,-32744(gp)
  100a50:	20c00083 	ldbu	r3,2(r4)
  100a54:	10c0182e 	bgeu	r2,r3,100ab8 <main+0x470>
  100a58:	1085883a 	add	r2,r2,r2
  100a5c:	2087883a 	add	r3,r4,r2
  100a60:	18c00204 	addi	r3,r3,8
  100a64:	19400003 	ldbu	r5,0(r3)
  100a68:	11c00204 	addi	r7,r2,8
  100a6c:	1085883a 	add	r2,r2,r2
  100a70:	29401fcc 	andi	r5,r5,127
  100a74:	10800284 	addi	r2,r2,10
  100a78:	19400005 	stb	r5,0(r3)
  100a7c:	3085883a 	add	r2,r6,r2
  100a80:	21cf883a 	add	r7,r4,r7
  100a84:	01000834 	movhi	r4,32
  100a88:	d8000215 	stw	zero,8(sp)
  100a8c:	d8800115 	stw	r2,4(sp)
  100a90:	dd400015 	stw	r21,0(sp)
  100a94:	01800084 	movi	r6,2
  100a98:	01400044 	movi	r5,1
  100a9c:	21081004 	addi	r4,r4,8256
  100aa0:	01021a00 	call	1021a0 <alt_avalon_spi_command>
  100aa4:	d8800315 	stw	r2,12(sp)
  100aa8:	d0a01a03 	ldbu	r2,-32664(gp)
  100aac:	10800044 	addi	r2,r2,1
  100ab0:	d0a01a05 	stb	r2,-32664(gp)
  100ab4:	003fe306 	br	100a44 <_gp+0xffef8398>
  100ab8:	00800044 	movi	r2,1
  100abc:	30800045 	stb	r2,1(r6)
  100ac0:	003f5506 	br	100818 <_gp+0xffef816c>
  100ac4:	28c00243 	ldbu	r3,9(r5)
  100ac8:	2d400343 	ldbu	r21,13(r5)
  100acc:	1808963a 	slli	r4,r3,24
  100ad0:	28c00283 	ldbu	r3,10(r5)
  100ad4:	d5601a45 	stb	r21,-32663(gp)
  100ad8:	1806943a 	slli	r3,r3,16
  100adc:	20c6b03a 	or	r3,r4,r3
  100ae0:	29000303 	ldbu	r4,12(r5)
  100ae4:	1908b03a 	or	r4,r3,r4
  100ae8:	28c002c3 	ldbu	r3,11(r5)
  100aec:	1806923a 	slli	r3,r3,8
  100af0:	20c6b03a 	or	r3,r4,r3
  100af4:	29000483 	ldbu	r4,18(r5)
  100af8:	d0e02115 	stw	r3,-32636(gp)
  100afc:	2002f81e 	bne	r4,zero,1016e0 <main+0x1098>
  100b00:	290004c3 	ldbu	r4,19(r5)
  100b04:	018000c4 	movi	r6,3
  100b08:	21803d1e 	bne	r4,r6,100c00 <main+0x5b8>
  100b0c:	28c00203 	ldbu	r3,8(r5)
  100b10:	1802f31e 	bne	r3,zero,1016e0 <main+0x1098>
  100b14:	01000834 	movhi	r4,32
  100b18:	000d883a 	mov	r6,zero
  100b1c:	01401404 	movi	r5,80
  100b20:	21082804 	addi	r4,r4,8352
  100b24:	01002e00 	call	1002e0 <I2C_start>
  100b28:	d0a02245 	stb	r2,-32631(gp)
  100b2c:	d0a00517 	ldw	r2,-32748(gp)
  100b30:	01000834 	movhi	r4,32
  100b34:	000d883a 	mov	r6,zero
  100b38:	11400403 	ldbu	r5,16(r2)
  100b3c:	21082804 	addi	r4,r4,8352
  100b40:	002b883a 	mov	r21,zero
  100b44:	01003440 	call	100344 <I2C_write>
  100b48:	d0e02243 	ldbu	r3,-32631(gp)
  100b4c:	01000834 	movhi	r4,32
  100b50:	000d883a 	mov	r6,zero
  100b54:	10c5883a 	add	r2,r2,r3
  100b58:	d0a02245 	stb	r2,-32631(gp)
  100b5c:	d0a00517 	ldw	r2,-32748(gp)
  100b60:	21082804 	addi	r4,r4,8352
  100b64:	11400443 	ldbu	r5,17(r2)
  100b68:	01003440 	call	100344 <I2C_write>
  100b6c:	d0e02243 	ldbu	r3,-32631(gp)
  100b70:	10c5883a 	add	r2,r2,r3
  100b74:	d0a02245 	stb	r2,-32631(gp)
  100b78:	d0e01a43 	ldbu	r3,-32663(gp)
  100b7c:	d0a00517 	ldw	r2,-32748(gp)
  100b80:	18ffffc4 	addi	r3,r3,-1
  100b84:	a8c00d0e 	bge	r21,r3,100bbc <main+0x574>
  100b88:	1545883a 	add	r2,r2,r21
  100b8c:	11400803 	ldbu	r5,32(r2)
  100b90:	01000834 	movhi	r4,32
  100b94:	000d883a 	mov	r6,zero
  100b98:	21082804 	addi	r4,r4,8352
  100b9c:	01003440 	call	100344 <I2C_write>
  100ba0:	d0e02243 	ldbu	r3,-32631(gp)
  100ba4:	0104e204 	movi	r4,5000
  100ba8:	ad400044 	addi	r21,r21,1
  100bac:	10c5883a 	add	r2,r2,r3
  100bb0:	d0a02245 	stb	r2,-32631(gp)
  100bb4:	01020a80 	call	1020a8 <usleep>
  100bb8:	003fef06 	br	100b78 <_gp+0xffef84cc>
  100bbc:	156b883a 	add	r21,r2,r21
  100bc0:	a9400803 	ldbu	r5,32(r21)
  100bc4:	05800044 	movi	r22,1
  100bc8:	01000834 	movhi	r4,32
  100bcc:	b00d883a 	mov	r6,r22
  100bd0:	21082804 	addi	r4,r4,8352
  100bd4:	01003440 	call	100344 <I2C_write>
  100bd8:	d0e02243 	ldbu	r3,-32631(gp)
  100bdc:	0104e204 	movi	r4,5000
  100be0:	10c5883a 	add	r2,r2,r3
  100be4:	d0a02245 	stb	r2,-32631(gp)
  100be8:	01020a80 	call	1020a8 <usleep>
  100bec:	d0e02243 	ldbu	r3,-32631(gp)
  100bf0:	d0a00617 	ldw	r2,-32744(gp)
  100bf4:	1802ba1e 	bne	r3,zero,1016e0 <main+0x1098>
  100bf8:	15800045 	stb	r22,1(r2)
  100bfc:	003f0606 	br	100818 <_gp+0xffef816c>
  100c00:	01800044 	movi	r6,1
  100c04:	2182b61e 	bne	r4,r6,1016e0 <main+0x1098>
  100c08:	29800203 	ldbu	r6,8(r5)
  100c0c:	01000084 	movi	r4,2
  100c10:	3102b31e 	bne	r6,r4,1016e0 <main+0x1098>
  100c14:	1800041e 	bne	r3,zero,100c28 <main+0x5e0>
  100c18:	d0201815 	stw	zero,-32672(gp)
  100c1c:	d0201715 	stw	zero,-32676(gp)
  100c20:	d0201515 	stw	zero,-32684(gp)
  100c24:	d0202315 	stw	zero,-32628(gp)
  100c28:	d5e01717 	ldw	r23,-32676(gp)
  100c2c:	00804004 	movi	r2,256
  100c30:	15c5c83a 	sub	r2,r2,r23
  100c34:	d0a01615 	stw	r2,-32680(gp)
  100c38:	0080150e 	bge	zero,r2,100c90 <main+0x648>
  100c3c:	ad403fcc 	andi	r21,r21,255
  100c40:	a880020e 	bge	r21,r2,100c4c <main+0x604>
  100c44:	d5601515 	stw	r21,-32684(gp)
  100c48:	00000106 	br	100c50 <main+0x608>
  100c4c:	d0a01515 	stw	r2,-32684(gp)
  100c50:	d5a01517 	ldw	r22,-32684(gp)
  100c54:	01000834 	movhi	r4,32
  100c58:	2101e604 	addi	r4,r4,1944
  100c5c:	b00d883a 	mov	r6,r22
  100c60:	29400804 	addi	r5,r5,32
  100c64:	25c9883a 	add	r4,r4,r23
  100c68:	bdad883a 	add	r22,r23,r22
  100c6c:	0101cec0 	call	101cec <memcpy>
  100c70:	d5a01715 	stw	r22,-32676(gp)
  100c74:	00804004 	movi	r2,256
  100c78:	a800021e 	bne	r21,zero,100c84 <main+0x63c>
  100c7c:	0580010e 	bge	zero,r22,100c84 <main+0x63c>
  100c80:	d0a01715 	stw	r2,-32676(gp)
  100c84:	d0e01717 	ldw	r3,-32676(gp)
  100c88:	10c5c83a 	sub	r2,r2,r3
  100c8c:	d0a01615 	stw	r2,-32680(gp)
  100c90:	d0a01717 	ldw	r2,-32676(gp)
  100c94:	00c03fc4 	movi	r3,255
  100c98:	1880280e 	bge	r3,r2,100d3c <main+0x6f4>
  100c9c:	d1e01817 	ldw	r7,-32672(gp)
  100ca0:	38c4703a 	and	r2,r7,r3
  100ca4:	1000101e 	bne	r2,zero,100ce8 <main+0x6a0>
  100ca8:	3800010e 	bge	r7,zero,100cb0 <main+0x668>
  100cac:	38cf883a 	add	r7,r7,r3
  100cb0:	380fd23a 	srai	r7,r7,8
  100cb4:	01000834 	movhi	r4,32
  100cb8:	01800044 	movi	r6,1
  100cbc:	39c03fcc 	andi	r7,r7,255
  100cc0:	000b883a 	mov	r5,zero
  100cc4:	21080004 	addi	r4,r4,8192
  100cc8:	0101a100 	call	101a10 <FlashSpiEraseSector>
  100ccc:	10803fcc 	andi	r2,r2,255
  100cd0:	10000326 	beq	r2,zero,100ce0 <main+0x698>
  100cd4:	d0a02243 	ldbu	r2,-32631(gp)
  100cd8:	10800044 	addi	r2,r2,1
  100cdc:	d0a02245 	stb	r2,-32631(gp)
  100ce0:	d0a02243 	ldbu	r2,-32631(gp)
  100ce4:	10000f1e 	bne	r2,zero,100d24 <main+0x6dc>
  100ce8:	00800834 	movhi	r2,32
  100cec:	d1a01817 	ldw	r6,-32672(gp)
  100cf0:	1081e604 	addi	r2,r2,1944
  100cf4:	01000834 	movhi	r4,32
  100cf8:	d8000115 	stw	zero,4(sp)
  100cfc:	d8800015 	stw	r2,0(sp)
  100d00:	01c04004 	movi	r7,256
  100d04:	000b883a 	mov	r5,zero
  100d08:	21080004 	addi	r4,r4,8192
  100d0c:	01018980 	call	101898 <FlashSpiTransfer>
  100d10:	10803fcc 	andi	r2,r2,255
  100d14:	10000326 	beq	r2,zero,100d24 <main+0x6dc>
  100d18:	d0a02243 	ldbu	r2,-32631(gp)
  100d1c:	10800044 	addi	r2,r2,1
  100d20:	d0a02245 	stb	r2,-32631(gp)
  100d24:	d0a01817 	ldw	r2,-32672(gp)
  100d28:	d0201715 	stw	zero,-32676(gp)
  100d2c:	10800044 	addi	r2,r2,1
  100d30:	d0a01815 	stw	r2,-32672(gp)
  100d34:	00804004 	movi	r2,256
  100d38:	d0a01615 	stw	r2,-32680(gp)
  100d3c:	d5e01a43 	ldbu	r23,-32663(gp)
  100d40:	d5601517 	ldw	r21,-32684(gp)
  100d44:	adc00f0e 	bge	r21,r23,100d84 <main+0x73c>
  100d48:	bd6dc83a 	sub	r22,r23,r21
  100d4c:	d1600517 	ldw	r5,-32748(gp)
  100d50:	d5601717 	ldw	r21,-32676(gp)
  100d54:	01000834 	movhi	r4,32
  100d58:	2101e604 	addi	r4,r4,1944
  100d5c:	2549883a 	add	r4,r4,r21
  100d60:	b80d883a 	mov	r6,r23
  100d64:	29400804 	addi	r5,r5,32
  100d68:	d5a01515 	stw	r22,-32684(gp)
  100d6c:	0101cec0 	call	101cec <memcpy>
  100d70:	b56b883a 	add	r21,r22,r21
  100d74:	00804004 	movi	r2,256
  100d78:	d5601715 	stw	r21,-32676(gp)
  100d7c:	156bc83a 	sub	r21,r2,r21
  100d80:	d5601615 	stw	r21,-32680(gp)
  100d84:	d1a02317 	ldw	r6,-32628(gp)
  100d88:	00c04034 	movhi	r3,256
  100d8c:	d0a00617 	ldw	r2,-32744(gp)
  100d90:	b98d883a 	add	r6,r23,r6
  100d94:	d1a02315 	stw	r6,-32628(gp)
  100d98:	19825136 	bltu	r3,r6,1016e0 <main+0x1098>
  100d9c:	d0e02243 	ldbu	r3,-32631(gp)
  100da0:	00024e06 	br	1016dc <main+0x1094>
  100da4:	28c00243 	ldbu	r3,9(r5)
  100da8:	1808963a 	slli	r4,r3,24
  100dac:	28c00283 	ldbu	r3,10(r5)
  100db0:	1806943a 	slli	r3,r3,16
  100db4:	20c6b03a 	or	r3,r4,r3
  100db8:	29000303 	ldbu	r4,12(r5)
  100dbc:	1908b03a 	or	r4,r3,r4
  100dc0:	28c002c3 	ldbu	r3,11(r5)
  100dc4:	1806923a 	slli	r3,r3,8
  100dc8:	20c6b03a 	or	r3,r4,r3
  100dcc:	d0e02115 	stw	r3,-32636(gp)
  100dd0:	28c00343 	ldbu	r3,13(r5)
  100dd4:	d0e01a45 	stb	r3,-32663(gp)
  100dd8:	28c00483 	ldbu	r3,18(r5)
  100ddc:	1802401e 	bne	r3,zero,1016e0 <main+0x1098>
  100de0:	28c004c3 	ldbu	r3,19(r5)
  100de4:	010000c4 	movi	r4,3
  100de8:	19003b1e 	bne	r3,r4,100ed8 <main+0x890>
  100dec:	28c00203 	ldbu	r3,8(r5)
  100df0:	18023b1e 	bne	r3,zero,1016e0 <main+0x1098>
  100df4:	01000834 	movhi	r4,32
  100df8:	000d883a 	mov	r6,zero
  100dfc:	01401404 	movi	r5,80
  100e00:	21082804 	addi	r4,r4,8352
  100e04:	01002e00 	call	1002e0 <I2C_start>
  100e08:	d0a02245 	stb	r2,-32631(gp)
  100e0c:	d0a00517 	ldw	r2,-32748(gp)
  100e10:	01000834 	movhi	r4,32
  100e14:	000d883a 	mov	r6,zero
  100e18:	11400403 	ldbu	r5,16(r2)
  100e1c:	21082804 	addi	r4,r4,8352
  100e20:	002b883a 	mov	r21,zero
  100e24:	01003440 	call	100344 <I2C_write>
  100e28:	d0e02243 	ldbu	r3,-32631(gp)
  100e2c:	01000834 	movhi	r4,32
  100e30:	000d883a 	mov	r6,zero
  100e34:	10c5883a 	add	r2,r2,r3
  100e38:	d0a02245 	stb	r2,-32631(gp)
  100e3c:	d0a00517 	ldw	r2,-32748(gp)
  100e40:	21082804 	addi	r4,r4,8352
  100e44:	11400443 	ldbu	r5,17(r2)
  100e48:	01003440 	call	100344 <I2C_write>
  100e4c:	d0e02243 	ldbu	r3,-32631(gp)
  100e50:	01000834 	movhi	r4,32
  100e54:	01800044 	movi	r6,1
  100e58:	10c5883a 	add	r2,r2,r3
  100e5c:	01401404 	movi	r5,80
  100e60:	21082804 	addi	r4,r4,8352
  100e64:	d0a02245 	stb	r2,-32631(gp)
  100e68:	01002e00 	call	1002e0 <I2C_start>
  100e6c:	d0e02243 	ldbu	r3,-32631(gp)
  100e70:	10c5883a 	add	r2,r2,r3
  100e74:	d0a02245 	stb	r2,-32631(gp)
  100e78:	d0a01a43 	ldbu	r2,-32663(gp)
  100e7c:	d5a00617 	ldw	r22,-32744(gp)
  100e80:	10bfffc4 	addi	r2,r2,-1
  100e84:	a880080e 	bge	r21,r2,100ea8 <main+0x860>
  100e88:	01000834 	movhi	r4,32
  100e8c:	000b883a 	mov	r5,zero
  100e90:	21082804 	addi	r4,r4,8352
  100e94:	b56d883a 	add	r22,r22,r21
  100e98:	01003180 	call	100318 <I2C_read>
  100e9c:	b0800805 	stb	r2,32(r22)
  100ea0:	ad400044 	addi	r21,r21,1
  100ea4:	003ff406 	br	100e78 <_gp+0xffef87cc>
  100ea8:	05c00044 	movi	r23,1
  100eac:	01000834 	movhi	r4,32
  100eb0:	b80b883a 	mov	r5,r23
  100eb4:	21082804 	addi	r4,r4,8352
  100eb8:	01003180 	call	100318 <I2C_read>
  100ebc:	d0e02243 	ldbu	r3,-32631(gp)
  100ec0:	b56b883a 	add	r21,r22,r21
  100ec4:	a8800805 	stb	r2,32(r21)
  100ec8:	d0a00617 	ldw	r2,-32744(gp)
  100ecc:	1802041e 	bne	r3,zero,1016e0 <main+0x1098>
  100ed0:	15c00045 	stb	r23,1(r2)
  100ed4:	003e5006 	br	100818 <_gp+0xffef816c>
  100ed8:	01000044 	movi	r4,1
  100edc:	1902001e 	bne	r3,r4,1016e0 <main+0x1098>
  100ee0:	28800383 	ldbu	r2,14(r5)
  100ee4:	05400834 	movhi	r21,32
  100ee8:	ad41e604 	addi	r21,r21,1944
  100eec:	100c963a 	slli	r6,r2,24
  100ef0:	288003c3 	ldbu	r2,15(r5)
  100ef4:	01000834 	movhi	r4,32
  100ef8:	01c04004 	movi	r7,256
  100efc:	1004943a 	slli	r2,r2,16
  100f00:	21080004 	addi	r4,r4,8192
  100f04:	3084b03a 	or	r2,r6,r2
  100f08:	29800443 	ldbu	r6,17(r5)
  100f0c:	118cb03a 	or	r6,r2,r6
  100f10:	28800403 	ldbu	r2,16(r5)
  100f14:	dd400015 	stw	r21,0(sp)
  100f18:	000b883a 	mov	r5,zero
  100f1c:	1004923a 	slli	r2,r2,8
  100f20:	308cb03a 	or	r6,r6,r2
  100f24:	d1a01815 	stw	r6,-32672(gp)
  100f28:	01017680 	call	101768 <FlashSpiRead>
  100f2c:	10803fcc 	andi	r2,r2,255
  100f30:	10000326 	beq	r2,zero,100f40 <main+0x8f8>
  100f34:	d0a02243 	ldbu	r2,-32631(gp)
  100f38:	10800044 	addi	r2,r2,1
  100f3c:	d0a02245 	stb	r2,-32631(gp)
  100f40:	d0a00617 	ldw	r2,-32744(gp)
  100f44:	d1201a43 	ldbu	r4,-32663(gp)
  100f48:	0007883a 	mov	r3,zero
  100f4c:	10800804 	addi	r2,r2,32
  100f50:	1901e00e 	bge	r3,r4,1016d4 <main+0x108c>
  100f54:	1d4b883a 	add	r5,r3,r21
  100f58:	29400003 	ldbu	r5,0(r5)
  100f5c:	18c00044 	addi	r3,r3,1
  100f60:	10800044 	addi	r2,r2,1
  100f64:	117fffc5 	stb	r5,-1(r2)
  100f68:	003ff906 	br	100f50 <_gp+0xffef88a4>
  100f6c:	1887883a 	add	r3,r3,r2
  100f70:	18c00203 	ldbu	r3,8(r3)
  100f74:	1800121e 	bne	r3,zero,100fc0 <main+0x978>
  100f78:	d0e00617 	ldw	r3,-32744(gp)
  100f7c:	1085883a 	add	r2,r2,r2
  100f80:	1085883a 	add	r2,r2,r2
  100f84:	1885883a 	add	r2,r3,r2
  100f88:	d0e00417 	ldw	r3,-32752(gp)
  100f8c:	10000205 	stb	zero,8(r2)
  100f90:	10000245 	stb	zero,9(r2)
  100f94:	1808d23a 	srli	r4,r3,8
  100f98:	10c002c5 	stb	r3,11(r2)
  100f9c:	11000285 	stb	r4,10(r2)
  100fa0:	d0a01a03 	ldbu	r2,-32664(gp)
  100fa4:	10800044 	addi	r2,r2,1
  100fa8:	d0a01a05 	stb	r2,-32664(gp)
  100fac:	d0e00517 	ldw	r3,-32748(gp)
  100fb0:	d0a01a03 	ldbu	r2,-32664(gp)
  100fb4:	19000083 	ldbu	r4,2(r3)
  100fb8:	113fec36 	bltu	r2,r4,100f6c <_gp+0xffef88c0>
  100fbc:	00003806 	br	1010a0 <main+0xa58>
  100fc0:	1d40331e 	bne	r3,r21,101090 <main+0xa48>
  100fc4:	01000834 	movhi	r4,32
  100fc8:	000d883a 	mov	r6,zero
  100fcc:	01401204 	movi	r5,72
  100fd0:	21082804 	addi	r4,r4,8352
  100fd4:	01002e00 	call	1002e0 <I2C_start>
  100fd8:	01000834 	movhi	r4,32
  100fdc:	a80d883a 	mov	r6,r21
  100fe0:	000b883a 	mov	r5,zero
  100fe4:	21082804 	addi	r4,r4,8352
  100fe8:	d8800315 	stw	r2,12(sp)
  100fec:	01003440 	call	100344 <I2C_write>
  100ff0:	01000834 	movhi	r4,32
  100ff4:	a80d883a 	mov	r6,r21
  100ff8:	01401204 	movi	r5,72
  100ffc:	21082804 	addi	r4,r4,8352
  101000:	d8800315 	stw	r2,12(sp)
  101004:	01002e00 	call	1002e0 <I2C_start>
  101008:	01000834 	movhi	r4,32
  10100c:	000b883a 	mov	r5,zero
  101010:	21082804 	addi	r4,r4,8352
  101014:	d8800315 	stw	r2,12(sp)
  101018:	01003180 	call	100318 <I2C_read>
  10101c:	11003fcc 	andi	r4,r2,255
  101020:	2100201c 	xori	r4,r4,128
  101024:	01400284 	movi	r5,10
  101028:	213fe004 	addi	r4,r4,-128
  10102c:	0101cc40 	call	101cc4 <__mulsi3>
  101030:	01000834 	movhi	r4,32
  101034:	a80b883a 	mov	r5,r21
  101038:	21082804 	addi	r4,r4,8352
  10103c:	d0a0030d 	sth	r2,-32756(gp)
  101040:	01003180 	call	100318 <I2C_read>
  101044:	d8800315 	stw	r2,12(sp)
  101048:	d8800317 	ldw	r2,12(sp)
  10104c:	1080200c 	andi	r2,r2,128
  101050:	10000326 	beq	r2,zero,101060 <main+0xa18>
  101054:	d0a0030b 	ldhu	r2,-32756(gp)
  101058:	10800144 	addi	r2,r2,5
  10105c:	d0a0030d 	sth	r2,-32756(gp)
  101060:	d0e01a03 	ldbu	r3,-32664(gp)
  101064:	d1200517 	ldw	r4,-32748(gp)
  101068:	18c5883a 	add	r2,r3,r3
  10106c:	20c7883a 	add	r3,r4,r3
  101070:	d1200617 	ldw	r4,-32744(gp)
  101074:	18c00203 	ldbu	r3,8(r3)
  101078:	1085883a 	add	r2,r2,r2
  10107c:	2085883a 	add	r2,r4,r2
  101080:	10c00205 	stb	r3,8(r2)
  101084:	15800245 	stb	r22,9(r2)
  101088:	d0e0030b 	ldhu	r3,-32756(gp)
  10108c:	003fc106 	br	100f94 <_gp+0xffef88e8>
  101090:	d0a02243 	ldbu	r2,-32631(gp)
  101094:	10800044 	addi	r2,r2,1
  101098:	d0a02245 	stb	r2,-32631(gp)
  10109c:	003fc006 	br	100fa0 <_gp+0xffef88f4>
  1010a0:	00c00044 	movi	r3,1
  1010a4:	d0a00617 	ldw	r2,-32744(gp)
  1010a8:	003dda06 	br	100814 <_gp+0xffef8168>
  1010ac:	01000104 	movi	r4,4
  1010b0:	01003800 	call	100380 <Check_many_blocks>
  1010b4:	10803fcc 	andi	r2,r2,255
  1010b8:	103dd71e 	bne	r2,zero,100818 <_gp+0xffef816c>
  1010bc:	d0201a05 	stb	zero,-32664(gp)
  1010c0:	d0e00517 	ldw	r3,-32748(gp)
  1010c4:	d0a01a03 	ldbu	r2,-32664(gp)
  1010c8:	19000083 	ldbu	r4,2(r3)
  1010cc:	1101812e 	bgeu	r2,r4,1016d4 <main+0x108c>
  1010d0:	1085883a 	add	r2,r2,r2
  1010d4:	1085883a 	add	r2,r2,r2
  1010d8:	1887883a 	add	r3,r3,r2
  1010dc:	18800203 	ldbu	r2,8(r3)
  1010e0:	10001d1e 	bne	r2,zero,101158 <main+0xb10>
  1010e4:	18800243 	ldbu	r2,9(r3)
  1010e8:	10001b1e 	bne	r2,zero,101158 <main+0xb10>
  1010ec:	19000283 	ldbu	r4,10(r3)
  1010f0:	20803fcc 	andi	r2,r4,255
  1010f4:	10001826 	beq	r2,zero,101158 <main+0xb10>
  1010f8:	18c002c3 	ldbu	r3,11(r3)
  1010fc:	1004923a 	slli	r2,r2,8
  101100:	d1201945 	stb	r4,-32667(gp)
  101104:	d0e01905 	stb	r3,-32668(gp)
  101108:	18c03fcc 	andi	r3,r3,255
  10110c:	10c4b03a 	or	r2,r2,r3
  101110:	1006d1ba 	srli	r3,r2,6
  101114:	d0a00415 	stw	r2,-32752(gp)
  101118:	01000834 	movhi	r4,32
  10111c:	1085883a 	add	r2,r2,r2
  101120:	18c00fcc 	andi	r3,r3,63
  101124:	1085883a 	add	r2,r2,r2
  101128:	d8000215 	stw	zero,8(sp)
  10112c:	d8000115 	stw	zero,4(sp)
  101130:	d8000015 	stw	zero,0(sp)
  101134:	d1e01c04 	addi	r7,gp,-32656
  101138:	01800084 	movi	r6,2
  10113c:	000b883a 	mov	r5,zero
  101140:	21080804 	addi	r4,r4,8224
  101144:	d0e01c05 	stb	r3,-32656(gp)
  101148:	d0a01c45 	stb	r2,-32655(gp)
  10114c:	01021a00 	call	1021a0 <alt_avalon_spi_command>
  101150:	d8800315 	stw	r2,12(sp)
  101154:	00000306 	br	101164 <main+0xb1c>
  101158:	d0a02243 	ldbu	r2,-32631(gp)
  10115c:	10800044 	addi	r2,r2,1
  101160:	d0a02245 	stb	r2,-32631(gp)
  101164:	d0a01a03 	ldbu	r2,-32664(gp)
  101168:	10800044 	addi	r2,r2,1
  10116c:	d0a01a05 	stb	r2,-32664(gp)
  101170:	003fd306 	br	1010c0 <_gp+0xffef8a14>
  101174:	28c00243 	ldbu	r3,9(r5)
  101178:	29800343 	ldbu	r6,13(r5)
  10117c:	1808963a 	slli	r4,r3,24
  101180:	28c00283 	ldbu	r3,10(r5)
  101184:	d1a01a45 	stb	r6,-32663(gp)
  101188:	1806943a 	slli	r3,r3,16
  10118c:	20c6b03a 	or	r3,r4,r3
  101190:	29000303 	ldbu	r4,12(r5)
  101194:	1908b03a 	or	r4,r3,r4
  101198:	28c002c3 	ldbu	r3,11(r5)
  10119c:	29400203 	ldbu	r5,8(r5)
  1011a0:	1806923a 	slli	r3,r3,8
  1011a4:	20c6b03a 	or	r3,r4,r3
  1011a8:	d0e02115 	stw	r3,-32636(gp)
  1011ac:	01000044 	movi	r4,1
  1011b0:	29000526 	beq	r5,r4,1011c8 <main+0xb80>
  1011b4:	28014a26 	beq	r5,zero,1016e0 <main+0x1098>
  1011b8:	00c00084 	movi	r3,2
  1011bc:	28c0821e 	bne	r5,r3,1013c8 <main+0xd80>
  1011c0:	d1201015 	stw	r4,-32704(gp)
  1011c4:	00008006 	br	1013c8 <main+0xd80>
  1011c8:	1800021e 	bne	r3,zero,1011d4 <main+0xb8c>
  1011cc:	00800284 	movi	r2,10
  1011d0:	d0a01f05 	stb	r2,-32644(gp)
  1011d4:	31803fcc 	andi	r6,r6,255
  1011d8:	3000021e 	bne	r6,zero,1011e4 <main+0xb9c>
  1011dc:	00800784 	movi	r2,30
  1011e0:	d0a01f05 	stb	r2,-32644(gp)
  1011e4:	00800044 	movi	r2,1
  1011e8:	00c002c4 	movi	r3,11
  1011ec:	01400044 	movi	r5,1
  1011f0:	054002f4 	movhi	r21,11
  1011f4:	02000174 	movhi	r8,5
  1011f8:	07c00274 	movhi	ra,9
  1011fc:	05bdf834 	movhi	r22,63456
  101200:	d0a01105 	stb	r2,-32700(gp)
  101204:	02400404 	movi	r9,16
  101208:	1815883a 	mov	r10,r3
  10120c:	01800504 	movi	r6,20
  101210:	2809883a 	mov	r4,r5
  101214:	01c00144 	movi	r7,5
  101218:	02c00504 	movi	r11,20
  10121c:	03000604 	movi	r12,24
  101220:	03400d04 	movi	r13,52
  101224:	03800434 	movhi	r14,16
  101228:	03c00084 	movi	r15,2
  10122c:	ad6b9804 	addi	r21,r21,-20896
  101230:	42280004 	addi	r8,r8,-24576
  101234:	ffefffc4 	addi	ra,ra,-16385
  101238:	b5bfffc4 	addi	r22,r22,-1
  10123c:	d0a01103 	ldbu	r2,-32700(gp)
  101240:	103d7526 	beq	r2,zero,100818 <_gp+0xffef816c>
  101244:	d0a01f03 	ldbu	r2,-32644(gp)
  101248:	10c01226 	beq	r2,r3,101294 <main+0xc4c>
  10124c:	18800a36 	bltu	r3,r2,101278 <main+0xc30>
  101250:	05c00284 	movi	r23,10
  101254:	15c0571e 	bne	r2,r23,1013b4 <main+0xd6c>
  101258:	d2200115 	stw	r8,-32764(gp)
  10125c:	d7e00015 	stw	ra,-32768(gp)
  101260:	d2201415 	stw	r8,-32688(gp)
  101264:	8cc00035 	stwio	r19,0(r17)
  101268:	8d800035 	stwio	r22,0(r17)
  10126c:	d0e01f05 	stb	r3,-32644(gp)
  101270:	d1201105 	stb	r4,-32700(gp)
  101274:	00000706 	br	101294 <main+0xc4c>
  101278:	12c01826 	beq	r2,r11,1012dc <main+0xc94>
  10127c:	05c00784 	movi	r23,30
  101280:	15c04c1e 	bne	r2,r23,1013b4 <main+0xd6c>
  101284:	00bfffc4 	movi	r2,-1
  101288:	88800035 	stwio	r2,0(r17)
  10128c:	d0201f05 	stb	zero,-32644(gp)
  101290:	00004406 	br	1013a4 <main+0xd5c>
  101294:	90800037 	ldwio	r2,0(r18)
  101298:	05c00834 	movhi	r23,32
  10129c:	108004cc 	andi	r2,r2,19
  1012a0:	bdc84404 	addi	r23,r23,8464
  1012a4:	1240031e 	bne	r2,r9,1012b4 <main+0xc6c>
  1012a8:	8cc00035 	stwio	r19,0(r17)
  1012ac:	d1a01f05 	stb	r6,-32644(gp)
  1012b0:	d1201105 	stb	r4,-32700(gp)
  1012b4:	b8800037 	ldwio	r2,0(r23)
  1012b8:	108004cc 	andi	r2,r2,19
  1012bc:	1140021e 	bne	r2,r5,1012c8 <main+0xc80>
  1012c0:	d2a01f05 	stb	r10,-32644(gp)
  1012c4:	d1601105 	stb	r5,-32700(gp)
  1012c8:	b8800037 	ldwio	r2,0(r23)
  1012cc:	108004cc 	andi	r2,r2,19
  1012d0:	103fda1e 	bne	r2,zero,10123c <_gp+0xffef8b90>
  1012d4:	d0201f05 	stb	zero,-32644(gp)
  1012d8:	003fd806 	br	10123c <_gp+0xffef8b90>
  1012dc:	d3201315 	stw	r12,-32692(gp)
  1012e0:	d0a01317 	ldw	r2,-32692(gp)
  1012e4:	68802e36 	bltu	r13,r2,1013a0 <main+0xd58>
  1012e8:	d7200517 	ldw	fp,-32748(gp)
  1012ec:	e0b9883a 	add	fp,fp,r2
  1012f0:	e0800203 	ldbu	r2,8(fp)
  1012f4:	1005c032 	custom	0,r2,r2,zero
  1012f8:	15ffc02c 	andhi	r23,r2,65280
  1012fc:	e0800243 	ldbu	r2,9(fp)
  101300:	1005c032 	custom	0,r2,r2,zero
  101304:	1005d23a 	srai	r2,r2,8
  101308:	10803fec 	andhi	r2,r2,255
  10130c:	b884b03a 	or	r2,r23,r2
  101310:	e5c00283 	ldbu	r23,10(fp)
  101314:	b82fc032 	custom	0,r23,r23,zero
  101318:	b82fd43a 	srai	r23,r23,16
  10131c:	bdffc00c 	andi	r23,r23,65280
  101320:	15c4b03a 	or	r2,r2,r23
  101324:	e5c002c3 	ldbu	r23,11(fp)
  101328:	b82fc032 	custom	0,r23,r23,zero
  10132c:	b82ed63a 	srli	r23,r23,24
  101330:	d7200017 	ldw	fp,-32768(gp)
  101334:	b884b03a 	or	r2,r23,r2
  101338:	d5e01417 	ldw	r23,-32688(gp)
  10133c:	d0a01215 	stw	r2,-32696(gp)
  101340:	e5c01136 	bltu	fp,r23,101388 <main+0xd40>
  101344:	bbaf883a 	add	r23,r23,r14
  101348:	b8800035 	stwio	r2,0(r23)
  10134c:	d0a01417 	ldw	r2,-32688(gp)
  101350:	10800104 	addi	r2,r2,4
  101354:	d0a01415 	stw	r2,-32688(gp)
  101358:	90800037 	ldwio	r2,0(r18)
  10135c:	05c00834 	movhi	r23,32
  101360:	108002cc 	andi	r2,r2,11
  101364:	bdc84404 	addi	r23,r23,8464
  101368:	13fffb26 	beq	r2,r15,101358 <_gp+0xffef8cac>
  10136c:	b8800037 	ldwio	r2,0(r23)
  101370:	108002cc 	andi	r2,r2,11
  101374:	1000021e 	bne	r2,zero,101380 <main+0xd38>
  101378:	d0201f05 	stb	zero,-32644(gp)
  10137c:	d5601415 	stw	r21,-32688(gp)
  101380:	b8800037 	ldwio	r2,0(r23)
  101384:	00000206 	br	101390 <main+0xd48>
  101388:	d0a00617 	ldw	r2,-32744(gp)
  10138c:	11c00045 	stb	r7,1(r2)
  101390:	d0a01317 	ldw	r2,-32692(gp)
  101394:	10800104 	addi	r2,r2,4
  101398:	d0a01315 	stw	r2,-32692(gp)
  10139c:	003fd006 	br	1012e0 <_gp+0xffef8c34>
  1013a0:	d1a01f05 	stb	r6,-32644(gp)
  1013a4:	d0a00617 	ldw	r2,-32744(gp)
  1013a8:	d0201105 	stb	zero,-32700(gp)
  1013ac:	11000045 	stb	r4,1(r2)
  1013b0:	003fa206 	br	10123c <_gp+0xffef8b90>
  1013b4:	d0a00617 	ldw	r2,-32744(gp)
  1013b8:	d0201f05 	stb	zero,-32644(gp)
  1013bc:	d0201105 	stb	zero,-32700(gp)
  1013c0:	11c00045 	stb	r7,1(r2)
  1013c4:	003f9d06 	br	10123c <_gp+0xffef8b90>
  1013c8:	11000045 	stb	r4,1(r2)
  1013cc:	003d1206 	br	100818 <_gp+0xffef816c>
  1013d0:	28c00243 	ldbu	r3,9(r5)
  1013d4:	d0e02115 	stw	r3,-32636(gp)
  1013d8:	18000526 	beq	r3,zero,1013f0 <main+0xda8>
  1013dc:	d1202017 	ldw	r4,-32640(gp)
  1013e0:	18ffffc4 	addi	r3,r3,-1
  1013e4:	19004326 	beq	r3,r4,1014f4 <main+0xeac>
  1013e8:	00c00184 	movi	r3,6
  1013ec:	003d0906 	br	100814 <_gp+0xffef8168>
  1013f0:	01000834 	movhi	r4,32
  1013f4:	05400084 	movi	r21,2
  1013f8:	05bfe004 	movi	r22,-128
  1013fc:	d8000215 	stw	zero,8(sp)
  101400:	d8000115 	stw	zero,4(sp)
  101404:	d8000015 	stw	zero,0(sp)
  101408:	d1e01cc4 	addi	r7,gp,-32653
  10140c:	01800104 	movi	r6,4
  101410:	000b883a 	mov	r5,zero
  101414:	21081004 	addi	r4,r4,8256
  101418:	d5601d05 	stb	r21,-32652(gp)
  10141c:	d5a01cc5 	stb	r22,-32653(gp)
  101420:	d0201d45 	stb	zero,-32651(gp)
  101424:	d0201d85 	stb	zero,-32650(gp)
  101428:	01021a00 	call	1021a0 <alt_avalon_spi_command>
  10142c:	d8800315 	stw	r2,12(sp)
  101430:	d0a00517 	ldw	r2,-32748(gp)
  101434:	d5601d05 	stb	r21,-32652(gp)
  101438:	d5a01cc5 	stb	r22,-32653(gp)
  10143c:	10800203 	ldbu	r2,8(r2)
  101440:	d0201d45 	stb	zero,-32651(gp)
  101444:	00c00084 	movi	r3,2
  101448:	d5601cc4 	addi	r21,gp,-32653
  10144c:	10c00426 	beq	r2,r3,101460 <main+0xe18>
  101450:	00c000c4 	movi	r3,3
  101454:	10c00e26 	beq	r2,r3,101490 <main+0xe48>
  101458:	00c00044 	movi	r3,1
  10145c:	10c0251e 	bne	r2,r3,1014f4 <main+0xeac>
  101460:	01000834 	movhi	r4,32
  101464:	d8000215 	stw	zero,8(sp)
  101468:	d8000115 	stw	zero,4(sp)
  10146c:	d8000015 	stw	zero,0(sp)
  101470:	a80f883a 	mov	r7,r21
  101474:	01800104 	movi	r6,4
  101478:	000b883a 	mov	r5,zero
  10147c:	21081004 	addi	r4,r4,8256
  101480:	d0a01d85 	stb	r2,-32650(gp)
  101484:	01021a00 	call	1021a0 <alt_avalon_spi_command>
  101488:	d8800315 	stw	r2,12(sp)
  10148c:	00001906 	br	1014f4 <main+0xeac>
  101490:	01000834 	movhi	r4,32
  101494:	058000c4 	movi	r22,3
  101498:	d1e01cc4 	addi	r7,gp,-32653
  10149c:	01800104 	movi	r6,4
  1014a0:	000b883a 	mov	r5,zero
  1014a4:	21081004 	addi	r4,r4,8256
  1014a8:	d8000215 	stw	zero,8(sp)
  1014ac:	d8000115 	stw	zero,4(sp)
  1014b0:	d8000015 	stw	zero,0(sp)
  1014b4:	d5a01d85 	stb	r22,-32650(gp)
  1014b8:	01021a00 	call	1021a0 <alt_avalon_spi_command>
  1014bc:	01800084 	movi	r6,2
  1014c0:	01000834 	movhi	r4,32
  1014c4:	d8000215 	stw	zero,8(sp)
  1014c8:	dd400115 	stw	r21,4(sp)
  1014cc:	d9800015 	stw	r6,0(sp)
  1014d0:	d1e01cc4 	addi	r7,gp,-32653
  1014d4:	000b883a 	mov	r5,zero
  1014d8:	21081004 	addi	r4,r4,8256
  1014dc:	d8800315 	stw	r2,12(sp)
  1014e0:	d0201cc5 	stb	zero,-32653(gp)
  1014e4:	d5a01d05 	stb	r22,-32652(gp)
  1014e8:	01021a00 	call	1021a0 <alt_avalon_spi_command>
  1014ec:	d8800315 	stw	r2,12(sp)
  1014f0:	00007806 	br	1016d4 <main+0x108c>
  1014f4:	d0201c85 	stb	zero,-32654(gp)
  1014f8:	05400744 	movi	r21,29
  1014fc:	d5a01cc4 	addi	r22,gp,-32653
  101500:	05c000c4 	movi	r23,3
  101504:	d0a01c83 	ldbu	r2,-32654(gp)
  101508:	a8800f36 	bltu	r21,r2,101548 <main+0xf00>
  10150c:	01800084 	movi	r6,2
  101510:	01000834 	movhi	r4,32
  101514:	d8000215 	stw	zero,8(sp)
  101518:	dd800115 	stw	r22,4(sp)
  10151c:	d9800015 	stw	r6,0(sp)
  101520:	d1e01cc4 	addi	r7,gp,-32653
  101524:	000b883a 	mov	r5,zero
  101528:	21081004 	addi	r4,r4,8256
  10152c:	d0201cc5 	stb	zero,-32653(gp)
  101530:	d5e01d05 	stb	r23,-32652(gp)
  101534:	01021a00 	call	1021a0 <alt_avalon_spi_command>
  101538:	d8800315 	stw	r2,12(sp)
  10153c:	d0a01d03 	ldbu	r2,-32652(gp)
  101540:	1080004c 	andi	r2,r2,1
  101544:	10000426 	beq	r2,zero,101558 <main+0xf10>
  101548:	d0201a05 	stb	zero,-32664(gp)
  10154c:	054007c4 	movi	r21,31
  101550:	05bfe004 	movi	r22,-128
  101554:	00000606 	br	101570 <main+0xf28>
  101558:	d0a01c83 	ldbu	r2,-32654(gp)
  10155c:	01000784 	movi	r4,30
  101560:	10800044 	addi	r2,r2,1
  101564:	d0a01c85 	stb	r2,-32654(gp)
  101568:	01020a80 	call	1020a8 <usleep>
  10156c:	003fe506 	br	101504 <_gp+0xffef8e58>
  101570:	d0a01a03 	ldbu	r2,-32664(gp)
  101574:	a8801736 	bltu	r21,r2,1015d4 <main+0xf8c>
  101578:	00c00104 	movi	r3,4
  10157c:	d0e01d05 	stb	r3,-32652(gp)
  101580:	d0e00517 	ldw	r3,-32748(gp)
  101584:	01000834 	movhi	r4,32
  101588:	d1e01cc4 	addi	r7,gp,-32653
  10158c:	1885883a 	add	r2,r3,r2
  101590:	10800283 	ldbu	r2,10(r2)
  101594:	01800104 	movi	r6,4
  101598:	d8000215 	stw	zero,8(sp)
  10159c:	d8000115 	stw	zero,4(sp)
  1015a0:	d8000015 	stw	zero,0(sp)
  1015a4:	000b883a 	mov	r5,zero
  1015a8:	21081004 	addi	r4,r4,8256
  1015ac:	d5a01cc5 	stb	r22,-32653(gp)
  1015b0:	d0201d45 	stb	zero,-32651(gp)
  1015b4:	d0a01d85 	stb	r2,-32650(gp)
  1015b8:	01021a00 	call	1021a0 <alt_avalon_spi_command>
  1015bc:	d8800315 	stw	r2,12(sp)
  1015c0:	d0a01a03 	ldbu	r2,-32664(gp)
  1015c4:	d0201c85 	stb	zero,-32654(gp)
  1015c8:	10800044 	addi	r2,r2,1
  1015cc:	d0a01a05 	stb	r2,-32664(gp)
  1015d0:	003fe706 	br	101570 <_gp+0xffef8ec4>
  1015d4:	d0201c85 	stb	zero,-32654(gp)
  1015d8:	d5601cc4 	addi	r21,gp,-32653
  1015dc:	05c000c4 	movi	r23,3
  1015e0:	07000084 	movi	fp,2
  1015e4:	01000834 	movhi	r4,32
  1015e8:	d8000215 	stw	zero,8(sp)
  1015ec:	dd400115 	stw	r21,4(sp)
  1015f0:	df000015 	stw	fp,0(sp)
  1015f4:	d1e01cc4 	addi	r7,gp,-32653
  1015f8:	01800084 	movi	r6,2
  1015fc:	000b883a 	mov	r5,zero
  101600:	21081004 	addi	r4,r4,8256
  101604:	d0201cc5 	stb	zero,-32653(gp)
  101608:	d5e01d05 	stb	r23,-32652(gp)
  10160c:	01021a00 	call	1021a0 <alt_avalon_spi_command>
  101610:	d8800315 	stw	r2,12(sp)
  101614:	d0a01d03 	ldbu	r2,-32652(gp)
  101618:	d5a01cc4 	addi	r22,gp,-32653
  10161c:	1080004c 	andi	r2,r2,1
  101620:	1000061e 	bne	r2,zero,10163c <main+0xff4>
  101624:	d0a01c83 	ldbu	r2,-32654(gp)
  101628:	01000784 	movi	r4,30
  10162c:	10800044 	addi	r2,r2,1
  101630:	d0a01c85 	stb	r2,-32654(gp)
  101634:	01020a80 	call	1020a8 <usleep>
  101638:	003fea06 	br	1015e4 <_gp+0xffef8f38>
  10163c:	d0e02117 	ldw	r3,-32636(gp)
  101640:	00803fc4 	movi	r2,255
  101644:	1880211e 	bne	r3,r2,1016cc <main+0x1084>
  101648:	d0201c85 	stb	zero,-32654(gp)
  10164c:	05400744 	movi	r21,29
  101650:	05c000c4 	movi	r23,3
  101654:	d0a01c83 	ldbu	r2,-32654(gp)
  101658:	a8800f36 	bltu	r21,r2,101698 <main+0x1050>
  10165c:	01800084 	movi	r6,2
  101660:	01000834 	movhi	r4,32
  101664:	d8000215 	stw	zero,8(sp)
  101668:	dd800115 	stw	r22,4(sp)
  10166c:	d9800015 	stw	r6,0(sp)
  101670:	d1e01cc4 	addi	r7,gp,-32653
  101674:	000b883a 	mov	r5,zero
  101678:	21081004 	addi	r4,r4,8256
  10167c:	d0201cc5 	stb	zero,-32653(gp)
  101680:	d5e01d05 	stb	r23,-32652(gp)
  101684:	01021a00 	call	1021a0 <alt_avalon_spi_command>
  101688:	d8800315 	stw	r2,12(sp)
  10168c:	d0a01d03 	ldbu	r2,-32652(gp)
  101690:	1080100c 	andi	r2,r2,64
  101694:	10000726 	beq	r2,zero,1016b4 <main+0x106c>
  101698:	d0e01c83 	ldbu	r3,-32654(gp)
  10169c:	00800784 	movi	r2,30
  1016a0:	18800a1e 	bne	r3,r2,1016cc <main+0x1084>
  1016a4:	d0a02243 	ldbu	r2,-32631(gp)
  1016a8:	10800044 	addi	r2,r2,1
  1016ac:	d0a02245 	stb	r2,-32631(gp)
  1016b0:	00000606 	br	1016cc <main+0x1084>
  1016b4:	d0a01c83 	ldbu	r2,-32654(gp)
  1016b8:	01000784 	movi	r4,30
  1016bc:	10800044 	addi	r2,r2,1
  1016c0:	d0a01c85 	stb	r2,-32654(gp)
  1016c4:	01020a80 	call	1020a8 <usleep>
  1016c8:	003fe206 	br	101654 <_gp+0xffef8fa8>
  1016cc:	d0a02117 	ldw	r2,-32636(gp)
  1016d0:	d0a02015 	stw	r2,-32640(gp)
  1016d4:	d0e02243 	ldbu	r3,-32631(gp)
  1016d8:	d0a00617 	ldw	r2,-32744(gp)
  1016dc:	18000226 	beq	r3,zero,1016e8 <main+0x10a0>
  1016e0:	00c00144 	movi	r3,5
  1016e4:	003c4b06 	br	100814 <_gp+0xffef8168>
  1016e8:	00c00044 	movi	r3,1
  1016ec:	003c4906 	br	100814 <_gp+0xffef8168>
  1016f0:	00c00084 	movi	r3,2
  1016f4:	003c4706 	br	100814 <_gp+0xffef8168>
  1016f8:	118b883a 	add	r5,r2,r6
  1016fc:	29400017 	ldw	r5,0(r5)
  101700:	21400035 	stwio	r5,0(r4)
  101704:	10800104 	addi	r2,r2,4
  101708:	10fffb1e 	bne	r2,r3,1016f8 <_gp+0xffef904c>
  10170c:	d0e01017 	ldw	r3,-32704(gp)
  101710:	00800044 	movi	r2,1
  101714:	18bbfc1e 	bne	r3,r2,100708 <_gp+0xffef805c>
  101718:	01006100 	call	100610 <boot_from_flash>
  10171c:	003bfa06 	br	100708 <_gp+0xffef805c>

00101720 <ReverseBitOrder>:
  101720:	21003fcc 	andi	r4,r4,255
  101724:	2004d07a 	srli	r2,r4,1
  101728:	2109883a 	add	r4,r4,r4
  10172c:	21002a8c 	andi	r4,r4,170
  101730:	1080154c 	andi	r2,r2,85
  101734:	2088b03a 	or	r4,r4,r2
  101738:	2004d0ba 	srli	r2,r4,2
  10173c:	2109883a 	add	r4,r4,r4
  101740:	2109883a 	add	r4,r4,r4
  101744:	10800ccc 	andi	r2,r2,51
  101748:	2100330c 	andi	r4,r4,204
  10174c:	2088b03a 	or	r4,r4,r2
  101750:	2004d13a 	srli	r2,r4,4
  101754:	2008913a 	slli	r4,r4,4
  101758:	1104b03a 	or	r2,r2,r4
  10175c:	f800283a 	ret

00101760 <FlashSpiFastRead>:
  101760:	d1202405 	stb	r4,-32624(gp)
  101764:	f800283a 	ret

00101768 <FlashSpiRead>:
  101768:	00800044 	movi	r2,1
  10176c:	d0a02405 	stb	r2,-32624(gp)
  101770:	39ffffcc 	andi	r7,r7,65535
  101774:	38001426 	beq	r7,zero,1017c8 <FlashSpiRead+0x60>
  101778:	3004d43a 	srli	r2,r6,16
  10177c:	defffb04 	addi	sp,sp,-20
  101780:	d98003c5 	stb	r6,15(sp)
  101784:	d8800345 	stb	r2,13(sp)
  101788:	3004d23a 	srli	r2,r6,8
  10178c:	d9c00015 	stw	r7,0(sp)
  101790:	d8000215 	stw	zero,8(sp)
  101794:	d8800385 	stb	r2,14(sp)
  101798:	008000c4 	movi	r2,3
  10179c:	d8800305 	stb	r2,12(sp)
  1017a0:	d8800517 	ldw	r2,20(sp)
  1017a4:	d9c00304 	addi	r7,sp,12
  1017a8:	01800104 	movi	r6,4
  1017ac:	d8800115 	stw	r2,4(sp)
  1017b0:	dfc00415 	stw	ra,16(sp)
  1017b4:	01021a00 	call	1021a0 <alt_avalon_spi_command>
  1017b8:	0005883a 	mov	r2,zero
  1017bc:	dfc00417 	ldw	ra,16(sp)
  1017c0:	dec00504 	addi	sp,sp,20
  1017c4:	f800283a 	ret
  1017c8:	0005883a 	mov	r2,zero
  1017cc:	f800283a 	ret

001017d0 <CyFxSpiWaitForStatus>:
  1017d0:	defff504 	addi	sp,sp,-44
  1017d4:	dd400915 	stw	r21,36(sp)
  1017d8:	dd000815 	stw	r20,32(sp)
  1017dc:	dcc00715 	stw	r19,28(sp)
  1017e0:	dc800615 	stw	r18,24(sp)
  1017e4:	dc000415 	stw	r16,16(sp)
  1017e8:	dfc00a15 	stw	ra,40(sp)
  1017ec:	dc400515 	stw	r17,20(sp)
  1017f0:	2025883a 	mov	r18,r4
  1017f4:	2827883a 	mov	r19,r5
  1017f8:	0409c444 	movi	r16,10001
  1017fc:	05000184 	movi	r20,6
  101800:	05400144 	movi	r21,5
  101804:	d9c00384 	addi	r7,sp,14
  101808:	01800044 	movi	r6,1
  10180c:	980b883a 	mov	r5,r19
  101810:	9009883a 	mov	r4,r18
  101814:	d8000215 	stw	zero,8(sp)
  101818:	d8000115 	stw	zero,4(sp)
  10181c:	d8000015 	stw	zero,0(sp)
  101820:	dd000385 	stb	r20,14(sp)
  101824:	01021a00 	call	1021a0 <alt_avalon_spi_command>
  101828:	d8800304 	addi	r2,sp,12
  10182c:	04400084 	movi	r17,2
  101830:	d8000215 	stw	zero,8(sp)
  101834:	d8800115 	stw	r2,4(sp)
  101838:	dc400015 	stw	r17,0(sp)
  10183c:	d9c00384 	addi	r7,sp,14
  101840:	01800044 	movi	r6,1
  101844:	980b883a 	mov	r5,r19
  101848:	9009883a 	mov	r4,r18
  10184c:	843fffc4 	addi	r16,r16,-1
  101850:	dd400385 	stb	r21,14(sp)
  101854:	01021a00 	call	1021a0 <alt_avalon_spi_command>
  101858:	80000526 	beq	r16,zero,101870 <CyFxSpiWaitForStatus+0xa0>
  10185c:	d8800303 	ldbu	r2,12(sp)
  101860:	108000cc 	andi	r2,r2,3
  101864:	147fe71e 	bne	r2,r17,101804 <_gp+0xffef9158>
  101868:	0005883a 	mov	r2,zero
  10186c:	00000106 	br	101874 <CyFxSpiWaitForStatus+0xa4>
  101870:	00800044 	movi	r2,1
  101874:	dfc00a17 	ldw	ra,40(sp)
  101878:	dd400917 	ldw	r21,36(sp)
  10187c:	dd000817 	ldw	r20,32(sp)
  101880:	dcc00717 	ldw	r19,28(sp)
  101884:	dc800617 	ldw	r18,24(sp)
  101888:	dc400517 	ldw	r17,20(sp)
  10188c:	dc000417 	ldw	r16,16(sp)
  101890:	dec00b04 	addi	sp,sp,44
  101894:	f800283a 	ret

00101898 <FlashSpiTransfer>:
  101898:	defff204 	addi	sp,sp,-56
  10189c:	df000c15 	stw	fp,48(sp)
  1018a0:	07000044 	movi	fp,1
  1018a4:	dcc00715 	stw	r19,28(sp)
  1018a8:	dfc00d15 	stw	ra,52(sp)
  1018ac:	ddc00b15 	stw	r23,44(sp)
  1018b0:	dd800a15 	stw	r22,40(sp)
  1018b4:	dd400915 	stw	r21,36(sp)
  1018b8:	dd000815 	stw	r20,32(sp)
  1018bc:	dc800615 	stw	r18,24(sp)
  1018c0:	dc400515 	stw	r17,20(sp)
  1018c4:	dc000415 	stw	r16,16(sp)
  1018c8:	d7202405 	stb	fp,-32624(gp)
  1018cc:	3cffffcc 	andi	r19,r7,65535
  1018d0:	9800021e 	bne	r19,zero,1018dc <FlashSpiTransfer+0x44>
  1018d4:	0005883a 	mov	r2,zero
  1018d8:	00004106 	br	1019e0 <FlashSpiTransfer+0x148>
  1018dc:	39c03fcc 	andi	r7,r7,255
  1018e0:	38003e1e 	bne	r7,zero,1019dc <FlashSpiTransfer+0x144>
  1018e4:	3020923a 	slli	r16,r6,8
  1018e8:	dd000e17 	ldw	r20,56(sp)
  1018ec:	9826d23a 	srli	r19,r19,8
  1018f0:	2825883a 	mov	r18,r5
  1018f4:	2023883a 	mov	r17,r4
  1018f8:	0039883a 	mov	fp,zero
  1018fc:	8521c83a 	sub	r16,r16,r20
  101900:	05400084 	movi	r21,2
  101904:	05800044 	movi	r22,1
  101908:	05c000c4 	movi	r23,3
  10190c:	98ffffcc 	andi	r3,r19,65535
  101910:	a405883a 	add	r2,r20,r16
  101914:	18003126 	beq	r3,zero,1019dc <FlashSpiTransfer+0x144>
  101918:	1006d43a 	srli	r3,r2,16
  10191c:	1004d23a 	srli	r2,r2,8
  101920:	d80003c5 	stb	zero,15(sp)
  101924:	d8c00345 	stb	r3,13(sp)
  101928:	d8800385 	stb	r2,14(sp)
  10192c:	d8800f17 	ldw	r2,60(sp)
  101930:	10001026 	beq	r2,zero,101974 <FlashSpiTransfer+0xdc>
  101934:	d0a02407 	ldb	r2,-32624(gp)
  101938:	ddc00305 	stb	r23,12(sp)
  10193c:	1000061e 	bne	r2,zero,101958 <FlashSpiTransfer+0xc0>
  101940:	900b883a 	mov	r5,r18
  101944:	8809883a 	mov	r4,r17
  101948:	01017d00 	call	1017d0 <CyFxSpiWaitForStatus>
  10194c:	1039883a 	mov	fp,r2
  101950:	10803fcc 	andi	r2,r2,255
  101954:	103fdf26 	beq	r2,zero,1018d4 <_gp+0xffef9228>
  101958:	00804004 	movi	r2,256
  10195c:	d8000215 	stw	zero,8(sp)
  101960:	dd000115 	stw	r20,4(sp)
  101964:	d8800015 	stw	r2,0(sp)
  101968:	d9c00304 	addi	r7,sp,12
  10196c:	01800104 	movi	r6,4
  101970:	00001406 	br	1019c4 <FlashSpiTransfer+0x12c>
  101974:	900b883a 	mov	r5,r18
  101978:	8809883a 	mov	r4,r17
  10197c:	dd400305 	stb	r21,12(sp)
  101980:	01017d00 	call	1017d0 <CyFxSpiWaitForStatus>
  101984:	1039883a 	mov	fp,r2
  101988:	10803fcc 	andi	r2,r2,255
  10198c:	1000131e 	bne	r2,zero,1019dc <FlashSpiTransfer+0x144>
  101990:	d9c00304 	addi	r7,sp,12
  101994:	01800104 	movi	r6,4
  101998:	dd800215 	stw	r22,8(sp)
  10199c:	d8000115 	stw	zero,4(sp)
  1019a0:	d8000015 	stw	zero,0(sp)
  1019a4:	900b883a 	mov	r5,r18
  1019a8:	8809883a 	mov	r4,r17
  1019ac:	01021a00 	call	1021a0 <alt_avalon_spi_command>
  1019b0:	a00f883a 	mov	r7,r20
  1019b4:	d8000215 	stw	zero,8(sp)
  1019b8:	d8000115 	stw	zero,4(sp)
  1019bc:	d8000015 	stw	zero,0(sp)
  1019c0:	01804004 	movi	r6,256
  1019c4:	900b883a 	mov	r5,r18
  1019c8:	8809883a 	mov	r4,r17
  1019cc:	01021a00 	call	1021a0 <alt_avalon_spi_command>
  1019d0:	a5004004 	addi	r20,r20,256
  1019d4:	9cffffc4 	addi	r19,r19,-1
  1019d8:	003fcc06 	br	10190c <_gp+0xffef9260>
  1019dc:	e005883a 	mov	r2,fp
  1019e0:	dfc00d17 	ldw	ra,52(sp)
  1019e4:	df000c17 	ldw	fp,48(sp)
  1019e8:	ddc00b17 	ldw	r23,44(sp)
  1019ec:	dd800a17 	ldw	r22,40(sp)
  1019f0:	dd400917 	ldw	r21,36(sp)
  1019f4:	dd000817 	ldw	r20,32(sp)
  1019f8:	dcc00717 	ldw	r19,28(sp)
  1019fc:	dc800617 	ldw	r18,24(sp)
  101a00:	dc400517 	ldw	r17,20(sp)
  101a04:	dc000417 	ldw	r16,16(sp)
  101a08:	dec00e04 	addi	sp,sp,56
  101a0c:	f800283a 	ret

00101a10 <FlashSpiEraseSector>:
  101a10:	defff504 	addi	sp,sp,-44
  101a14:	dc000515 	stw	r16,20(sp)
  101a18:	3021883a 	mov	r16,r6
  101a1c:	dcc00815 	stw	r19,32(sp)
  101a20:	00800184 	movi	r2,6
  101a24:	3827883a 	mov	r19,r7
  101a28:	d8000215 	stw	zero,8(sp)
  101a2c:	d8000115 	stw	zero,4(sp)
  101a30:	d8000015 	stw	zero,0(sp)
  101a34:	d9c00304 	addi	r7,sp,12
  101a38:	01800044 	movi	r6,1
  101a3c:	84003fcc 	andi	r16,r16,255
  101a40:	dc800715 	stw	r18,28(sp)
  101a44:	dc400615 	stw	r17,24(sp)
  101a48:	dfc00a15 	stw	ra,40(sp)
  101a4c:	dd000915 	stw	r20,36(sp)
  101a50:	2023883a 	mov	r17,r4
  101a54:	2825883a 	mov	r18,r5
  101a58:	d8800305 	stb	r2,12(sp)
  101a5c:	01021a00 	call	1021a0 <alt_avalon_spi_command>
  101a60:	80000d26 	beq	r16,zero,101a98 <FlashSpiEraseSector+0x88>
  101a64:	00800804 	movi	r2,32
  101a68:	d8000215 	stw	zero,8(sp)
  101a6c:	d8000115 	stw	zero,4(sp)
  101a70:	d8000015 	stw	zero,0(sp)
  101a74:	d9c00304 	addi	r7,sp,12
  101a78:	01800104 	movi	r6,4
  101a7c:	900b883a 	mov	r5,r18
  101a80:	8809883a 	mov	r4,r17
  101a84:	d8800305 	stb	r2,12(sp)
  101a88:	dcc00345 	stb	r19,13(sp)
  101a8c:	d8000385 	stb	zero,14(sp)
  101a90:	d80003c5 	stb	zero,15(sp)
  101a94:	01021a00 	call	1021a0 <alt_avalon_spi_command>
  101a98:	00800144 	movi	r2,5
  101a9c:	04000bb4 	movhi	r16,46
  101aa0:	d8800305 	stb	r2,12(sp)
  101aa4:	8431b044 	addi	r16,r16,-14655
  101aa8:	04c00044 	movi	r19,1
  101aac:	dd000404 	addi	r20,sp,16
  101ab0:	d8000215 	stw	zero,8(sp)
  101ab4:	dd000115 	stw	r20,4(sp)
  101ab8:	dcc00015 	stw	r19,0(sp)
  101abc:	d9c00304 	addi	r7,sp,12
  101ac0:	01800044 	movi	r6,1
  101ac4:	900b883a 	mov	r5,r18
  101ac8:	8809883a 	mov	r4,r17
  101acc:	843fffc4 	addi	r16,r16,-1
  101ad0:	01021a00 	call	1021a0 <alt_avalon_spi_command>
  101ad4:	80000526 	beq	r16,zero,101aec <FlashSpiEraseSector+0xdc>
  101ad8:	d8c00403 	ldbu	r3,16(sp)
  101adc:	18c0004c 	andi	r3,r3,1
  101ae0:	1805883a 	mov	r2,r3
  101ae4:	183ff21e 	bne	r3,zero,101ab0 <_gp+0xffef9404>
  101ae8:	00000106 	br	101af0 <FlashSpiEraseSector+0xe0>
  101aec:	00800044 	movi	r2,1
  101af0:	dfc00a17 	ldw	ra,40(sp)
  101af4:	dd000917 	ldw	r20,36(sp)
  101af8:	dcc00817 	ldw	r19,32(sp)
  101afc:	dc800717 	ldw	r18,28(sp)
  101b00:	dc400617 	ldw	r17,24(sp)
  101b04:	dc000517 	ldw	r16,20(sp)
  101b08:	dec00b04 	addi	sp,sp,44
  101b0c:	f800283a 	ret

00101b10 <__divsi3>:
  101b10:	20001b16 	blt	r4,zero,101b80 <__divsi3+0x70>
  101b14:	000f883a 	mov	r7,zero
  101b18:	28001616 	blt	r5,zero,101b74 <__divsi3+0x64>
  101b1c:	200d883a 	mov	r6,r4
  101b20:	29001a2e 	bgeu	r5,r4,101b8c <__divsi3+0x7c>
  101b24:	00800804 	movi	r2,32
  101b28:	00c00044 	movi	r3,1
  101b2c:	00000106 	br	101b34 <__divsi3+0x24>
  101b30:	10000d26 	beq	r2,zero,101b68 <__divsi3+0x58>
  101b34:	294b883a 	add	r5,r5,r5
  101b38:	10bfffc4 	addi	r2,r2,-1
  101b3c:	18c7883a 	add	r3,r3,r3
  101b40:	293ffb36 	bltu	r5,r4,101b30 <_gp+0xffef9484>
  101b44:	0005883a 	mov	r2,zero
  101b48:	18000726 	beq	r3,zero,101b68 <__divsi3+0x58>
  101b4c:	0005883a 	mov	r2,zero
  101b50:	31400236 	bltu	r6,r5,101b5c <__divsi3+0x4c>
  101b54:	314dc83a 	sub	r6,r6,r5
  101b58:	10c4b03a 	or	r2,r2,r3
  101b5c:	1806d07a 	srli	r3,r3,1
  101b60:	280ad07a 	srli	r5,r5,1
  101b64:	183ffa1e 	bne	r3,zero,101b50 <_gp+0xffef94a4>
  101b68:	38000126 	beq	r7,zero,101b70 <__divsi3+0x60>
  101b6c:	0085c83a 	sub	r2,zero,r2
  101b70:	f800283a 	ret
  101b74:	014bc83a 	sub	r5,zero,r5
  101b78:	39c0005c 	xori	r7,r7,1
  101b7c:	003fe706 	br	101b1c <_gp+0xffef9470>
  101b80:	0109c83a 	sub	r4,zero,r4
  101b84:	01c00044 	movi	r7,1
  101b88:	003fe306 	br	101b18 <_gp+0xffef946c>
  101b8c:	00c00044 	movi	r3,1
  101b90:	003fee06 	br	101b4c <_gp+0xffef94a0>

00101b94 <__modsi3>:
  101b94:	20001716 	blt	r4,zero,101bf4 <__modsi3+0x60>
  101b98:	000f883a 	mov	r7,zero
  101b9c:	2005883a 	mov	r2,r4
  101ba0:	28001216 	blt	r5,zero,101bec <__modsi3+0x58>
  101ba4:	2900162e 	bgeu	r5,r4,101c00 <__modsi3+0x6c>
  101ba8:	01800804 	movi	r6,32
  101bac:	00c00044 	movi	r3,1
  101bb0:	00000106 	br	101bb8 <__modsi3+0x24>
  101bb4:	30000a26 	beq	r6,zero,101be0 <__modsi3+0x4c>
  101bb8:	294b883a 	add	r5,r5,r5
  101bbc:	31bfffc4 	addi	r6,r6,-1
  101bc0:	18c7883a 	add	r3,r3,r3
  101bc4:	293ffb36 	bltu	r5,r4,101bb4 <_gp+0xffef9508>
  101bc8:	18000526 	beq	r3,zero,101be0 <__modsi3+0x4c>
  101bcc:	1806d07a 	srli	r3,r3,1
  101bd0:	11400136 	bltu	r2,r5,101bd8 <__modsi3+0x44>
  101bd4:	1145c83a 	sub	r2,r2,r5
  101bd8:	280ad07a 	srli	r5,r5,1
  101bdc:	183ffb1e 	bne	r3,zero,101bcc <_gp+0xffef9520>
  101be0:	38000126 	beq	r7,zero,101be8 <__modsi3+0x54>
  101be4:	0085c83a 	sub	r2,zero,r2
  101be8:	f800283a 	ret
  101bec:	014bc83a 	sub	r5,zero,r5
  101bf0:	003fec06 	br	101ba4 <_gp+0xffef94f8>
  101bf4:	0109c83a 	sub	r4,zero,r4
  101bf8:	01c00044 	movi	r7,1
  101bfc:	003fe706 	br	101b9c <_gp+0xffef94f0>
  101c00:	00c00044 	movi	r3,1
  101c04:	003ff106 	br	101bcc <_gp+0xffef9520>

00101c08 <__udivsi3>:
  101c08:	200d883a 	mov	r6,r4
  101c0c:	2900152e 	bgeu	r5,r4,101c64 <__udivsi3+0x5c>
  101c10:	28001416 	blt	r5,zero,101c64 <__udivsi3+0x5c>
  101c14:	00800804 	movi	r2,32
  101c18:	00c00044 	movi	r3,1
  101c1c:	00000206 	br	101c28 <__udivsi3+0x20>
  101c20:	10000e26 	beq	r2,zero,101c5c <__udivsi3+0x54>
  101c24:	28000516 	blt	r5,zero,101c3c <__udivsi3+0x34>
  101c28:	294b883a 	add	r5,r5,r5
  101c2c:	10bfffc4 	addi	r2,r2,-1
  101c30:	18c7883a 	add	r3,r3,r3
  101c34:	293ffa36 	bltu	r5,r4,101c20 <_gp+0xffef9574>
  101c38:	18000826 	beq	r3,zero,101c5c <__udivsi3+0x54>
  101c3c:	0005883a 	mov	r2,zero
  101c40:	31400236 	bltu	r6,r5,101c4c <__udivsi3+0x44>
  101c44:	314dc83a 	sub	r6,r6,r5
  101c48:	10c4b03a 	or	r2,r2,r3
  101c4c:	1806d07a 	srli	r3,r3,1
  101c50:	280ad07a 	srli	r5,r5,1
  101c54:	183ffa1e 	bne	r3,zero,101c40 <_gp+0xffef9594>
  101c58:	f800283a 	ret
  101c5c:	0005883a 	mov	r2,zero
  101c60:	f800283a 	ret
  101c64:	00c00044 	movi	r3,1
  101c68:	003ff406 	br	101c3c <_gp+0xffef9590>

00101c6c <__umodsi3>:
  101c6c:	2005883a 	mov	r2,r4
  101c70:	2900122e 	bgeu	r5,r4,101cbc <__umodsi3+0x50>
  101c74:	28001116 	blt	r5,zero,101cbc <__umodsi3+0x50>
  101c78:	01800804 	movi	r6,32
  101c7c:	00c00044 	movi	r3,1
  101c80:	00000206 	br	101c8c <__umodsi3+0x20>
  101c84:	30000c26 	beq	r6,zero,101cb8 <__umodsi3+0x4c>
  101c88:	28000516 	blt	r5,zero,101ca0 <__umodsi3+0x34>
  101c8c:	294b883a 	add	r5,r5,r5
  101c90:	31bfffc4 	addi	r6,r6,-1
  101c94:	18c7883a 	add	r3,r3,r3
  101c98:	293ffa36 	bltu	r5,r4,101c84 <_gp+0xffef95d8>
  101c9c:	18000626 	beq	r3,zero,101cb8 <__umodsi3+0x4c>
  101ca0:	1806d07a 	srli	r3,r3,1
  101ca4:	11400136 	bltu	r2,r5,101cac <__umodsi3+0x40>
  101ca8:	1145c83a 	sub	r2,r2,r5
  101cac:	280ad07a 	srli	r5,r5,1
  101cb0:	183ffb1e 	bne	r3,zero,101ca0 <_gp+0xffef95f4>
  101cb4:	f800283a 	ret
  101cb8:	f800283a 	ret
  101cbc:	00c00044 	movi	r3,1
  101cc0:	003ff706 	br	101ca0 <_gp+0xffef95f4>

00101cc4 <__mulsi3>:
  101cc4:	0005883a 	mov	r2,zero
  101cc8:	20000726 	beq	r4,zero,101ce8 <__mulsi3+0x24>
  101ccc:	20c0004c 	andi	r3,r4,1
  101cd0:	2008d07a 	srli	r4,r4,1
  101cd4:	18000126 	beq	r3,zero,101cdc <__mulsi3+0x18>
  101cd8:	1145883a 	add	r2,r2,r5
  101cdc:	294b883a 	add	r5,r5,r5
  101ce0:	203ffa1e 	bne	r4,zero,101ccc <_gp+0xffef9620>
  101ce4:	f800283a 	ret
  101ce8:	f800283a 	ret

00101cec <memcpy>:
  101cec:	defffd04 	addi	sp,sp,-12
  101cf0:	dfc00215 	stw	ra,8(sp)
  101cf4:	dc400115 	stw	r17,4(sp)
  101cf8:	dc000015 	stw	r16,0(sp)
  101cfc:	00c003c4 	movi	r3,15
  101d00:	2005883a 	mov	r2,r4
  101d04:	1980452e 	bgeu	r3,r6,101e1c <memcpy+0x130>
  101d08:	2906b03a 	or	r3,r5,r4
  101d0c:	18c000cc 	andi	r3,r3,3
  101d10:	1800441e 	bne	r3,zero,101e24 <memcpy+0x138>
  101d14:	347ffc04 	addi	r17,r6,-16
  101d18:	8822d13a 	srli	r17,r17,4
  101d1c:	28c00104 	addi	r3,r5,4
  101d20:	23400104 	addi	r13,r4,4
  101d24:	8820913a 	slli	r16,r17,4
  101d28:	2b000204 	addi	r12,r5,8
  101d2c:	22c00204 	addi	r11,r4,8
  101d30:	84000504 	addi	r16,r16,20
  101d34:	2a800304 	addi	r10,r5,12
  101d38:	22400304 	addi	r9,r4,12
  101d3c:	2c21883a 	add	r16,r5,r16
  101d40:	2811883a 	mov	r8,r5
  101d44:	200f883a 	mov	r7,r4
  101d48:	41000017 	ldw	r4,0(r8)
  101d4c:	1fc00017 	ldw	ra,0(r3)
  101d50:	63c00017 	ldw	r15,0(r12)
  101d54:	39000015 	stw	r4,0(r7)
  101d58:	53800017 	ldw	r14,0(r10)
  101d5c:	6fc00015 	stw	ra,0(r13)
  101d60:	5bc00015 	stw	r15,0(r11)
  101d64:	4b800015 	stw	r14,0(r9)
  101d68:	18c00404 	addi	r3,r3,16
  101d6c:	39c00404 	addi	r7,r7,16
  101d70:	42000404 	addi	r8,r8,16
  101d74:	6b400404 	addi	r13,r13,16
  101d78:	63000404 	addi	r12,r12,16
  101d7c:	5ac00404 	addi	r11,r11,16
  101d80:	52800404 	addi	r10,r10,16
  101d84:	4a400404 	addi	r9,r9,16
  101d88:	1c3fef1e 	bne	r3,r16,101d48 <_gp+0xffef969c>
  101d8c:	89c00044 	addi	r7,r17,1
  101d90:	380e913a 	slli	r7,r7,4
  101d94:	310003cc 	andi	r4,r6,15
  101d98:	02c000c4 	movi	r11,3
  101d9c:	11c7883a 	add	r3,r2,r7
  101da0:	29cb883a 	add	r5,r5,r7
  101da4:	5900212e 	bgeu	r11,r4,101e2c <memcpy+0x140>
  101da8:	1813883a 	mov	r9,r3
  101dac:	2811883a 	mov	r8,r5
  101db0:	200f883a 	mov	r7,r4
  101db4:	42800017 	ldw	r10,0(r8)
  101db8:	4a400104 	addi	r9,r9,4
  101dbc:	39ffff04 	addi	r7,r7,-4
  101dc0:	4abfff15 	stw	r10,-4(r9)
  101dc4:	42000104 	addi	r8,r8,4
  101dc8:	59fffa36 	bltu	r11,r7,101db4 <_gp+0xffef9708>
  101dcc:	213fff04 	addi	r4,r4,-4
  101dd0:	2008d0ba 	srli	r4,r4,2
  101dd4:	318000cc 	andi	r6,r6,3
  101dd8:	21000044 	addi	r4,r4,1
  101ddc:	2109883a 	add	r4,r4,r4
  101de0:	2109883a 	add	r4,r4,r4
  101de4:	1907883a 	add	r3,r3,r4
  101de8:	290b883a 	add	r5,r5,r4
  101dec:	30000626 	beq	r6,zero,101e08 <memcpy+0x11c>
  101df0:	198d883a 	add	r6,r3,r6
  101df4:	29c00003 	ldbu	r7,0(r5)
  101df8:	18c00044 	addi	r3,r3,1
  101dfc:	29400044 	addi	r5,r5,1
  101e00:	19ffffc5 	stb	r7,-1(r3)
  101e04:	19bffb1e 	bne	r3,r6,101df4 <_gp+0xffef9748>
  101e08:	dfc00217 	ldw	ra,8(sp)
  101e0c:	dc400117 	ldw	r17,4(sp)
  101e10:	dc000017 	ldw	r16,0(sp)
  101e14:	dec00304 	addi	sp,sp,12
  101e18:	f800283a 	ret
  101e1c:	2007883a 	mov	r3,r4
  101e20:	003ff206 	br	101dec <_gp+0xffef9740>
  101e24:	2007883a 	mov	r3,r4
  101e28:	003ff106 	br	101df0 <_gp+0xffef9744>
  101e2c:	200d883a 	mov	r6,r4
  101e30:	003fee06 	br	101dec <_gp+0xffef9740>

00101e34 <memset>:
  101e34:	20c000cc 	andi	r3,r4,3
  101e38:	2005883a 	mov	r2,r4
  101e3c:	18004426 	beq	r3,zero,101f50 <memset+0x11c>
  101e40:	31ffffc4 	addi	r7,r6,-1
  101e44:	30004026 	beq	r6,zero,101f48 <memset+0x114>
  101e48:	2813883a 	mov	r9,r5
  101e4c:	200d883a 	mov	r6,r4
  101e50:	2007883a 	mov	r3,r4
  101e54:	00000406 	br	101e68 <memset+0x34>
  101e58:	3a3fffc4 	addi	r8,r7,-1
  101e5c:	31800044 	addi	r6,r6,1
  101e60:	38003926 	beq	r7,zero,101f48 <memset+0x114>
  101e64:	400f883a 	mov	r7,r8
  101e68:	18c00044 	addi	r3,r3,1
  101e6c:	32400005 	stb	r9,0(r6)
  101e70:	1a0000cc 	andi	r8,r3,3
  101e74:	403ff81e 	bne	r8,zero,101e58 <_gp+0xffef97ac>
  101e78:	010000c4 	movi	r4,3
  101e7c:	21c02d2e 	bgeu	r4,r7,101f34 <memset+0x100>
  101e80:	29003fcc 	andi	r4,r5,255
  101e84:	200c923a 	slli	r6,r4,8
  101e88:	3108b03a 	or	r4,r6,r4
  101e8c:	200c943a 	slli	r6,r4,16
  101e90:	218cb03a 	or	r6,r4,r6
  101e94:	010003c4 	movi	r4,15
  101e98:	21c0182e 	bgeu	r4,r7,101efc <memset+0xc8>
  101e9c:	3b3ffc04 	addi	r12,r7,-16
  101ea0:	6018d13a 	srli	r12,r12,4
  101ea4:	1a000104 	addi	r8,r3,4
  101ea8:	1ac00204 	addi	r11,r3,8
  101eac:	6008913a 	slli	r4,r12,4
  101eb0:	1a800304 	addi	r10,r3,12
  101eb4:	1813883a 	mov	r9,r3
  101eb8:	21000504 	addi	r4,r4,20
  101ebc:	1909883a 	add	r4,r3,r4
  101ec0:	49800015 	stw	r6,0(r9)
  101ec4:	41800015 	stw	r6,0(r8)
  101ec8:	59800015 	stw	r6,0(r11)
  101ecc:	51800015 	stw	r6,0(r10)
  101ed0:	42000404 	addi	r8,r8,16
  101ed4:	4a400404 	addi	r9,r9,16
  101ed8:	5ac00404 	addi	r11,r11,16
  101edc:	52800404 	addi	r10,r10,16
  101ee0:	413ff71e 	bne	r8,r4,101ec0 <_gp+0xffef9814>
  101ee4:	63000044 	addi	r12,r12,1
  101ee8:	6018913a 	slli	r12,r12,4
  101eec:	39c003cc 	andi	r7,r7,15
  101ef0:	010000c4 	movi	r4,3
  101ef4:	1b07883a 	add	r3,r3,r12
  101ef8:	21c00e2e 	bgeu	r4,r7,101f34 <memset+0x100>
  101efc:	1813883a 	mov	r9,r3
  101f00:	3811883a 	mov	r8,r7
  101f04:	010000c4 	movi	r4,3
  101f08:	49800015 	stw	r6,0(r9)
  101f0c:	423fff04 	addi	r8,r8,-4
  101f10:	4a400104 	addi	r9,r9,4
  101f14:	223ffc36 	bltu	r4,r8,101f08 <_gp+0xffef985c>
  101f18:	393fff04 	addi	r4,r7,-4
  101f1c:	2008d0ba 	srli	r4,r4,2
  101f20:	39c000cc 	andi	r7,r7,3
  101f24:	21000044 	addi	r4,r4,1
  101f28:	2109883a 	add	r4,r4,r4
  101f2c:	2109883a 	add	r4,r4,r4
  101f30:	1907883a 	add	r3,r3,r4
  101f34:	38000526 	beq	r7,zero,101f4c <memset+0x118>
  101f38:	19cf883a 	add	r7,r3,r7
  101f3c:	19400005 	stb	r5,0(r3)
  101f40:	18c00044 	addi	r3,r3,1
  101f44:	38fffd1e 	bne	r7,r3,101f3c <_gp+0xffef9890>
  101f48:	f800283a 	ret
  101f4c:	f800283a 	ret
  101f50:	2007883a 	mov	r3,r4
  101f54:	300f883a 	mov	r7,r6
  101f58:	003fc706 	br	101e78 <_gp+0xffef97cc>

00101f5c <alt_load_section>:
  101f5c:	defffc04 	addi	sp,sp,-16
  101f60:	df000315 	stw	fp,12(sp)
  101f64:	df000304 	addi	fp,sp,12
  101f68:	e13ffd15 	stw	r4,-12(fp)
  101f6c:	e17ffe15 	stw	r5,-8(fp)
  101f70:	e1bfff15 	stw	r6,-4(fp)
  101f74:	e0fffe17 	ldw	r3,-8(fp)
  101f78:	e0bffd17 	ldw	r2,-12(fp)
  101f7c:	18800c26 	beq	r3,r2,101fb0 <alt_load_section+0x54>
  101f80:	00000806 	br	101fa4 <alt_load_section+0x48>
  101f84:	e0bffe17 	ldw	r2,-8(fp)
  101f88:	10c00104 	addi	r3,r2,4
  101f8c:	e0fffe15 	stw	r3,-8(fp)
  101f90:	e0fffd17 	ldw	r3,-12(fp)
  101f94:	19000104 	addi	r4,r3,4
  101f98:	e13ffd15 	stw	r4,-12(fp)
  101f9c:	18c00017 	ldw	r3,0(r3)
  101fa0:	10c00015 	stw	r3,0(r2)
  101fa4:	e0fffe17 	ldw	r3,-8(fp)
  101fa8:	e0bfff17 	ldw	r2,-4(fp)
  101fac:	18bff51e 	bne	r3,r2,101f84 <_gp+0xffef98d8>
  101fb0:	0001883a 	nop
  101fb4:	e037883a 	mov	sp,fp
  101fb8:	df000017 	ldw	fp,0(sp)
  101fbc:	dec00104 	addi	sp,sp,4
  101fc0:	f800283a 	ret

00101fc4 <alt_load>:
  101fc4:	defffe04 	addi	sp,sp,-8
  101fc8:	dfc00115 	stw	ra,4(sp)
  101fcc:	df000015 	stw	fp,0(sp)
  101fd0:	d839883a 	mov	fp,sp
  101fd4:	01800834 	movhi	r6,32
  101fd8:	3181bb04 	addi	r6,r6,1772
  101fdc:	01400834 	movhi	r5,32
  101fe0:	29400704 	addi	r5,r5,28
  101fe4:	01000434 	movhi	r4,16
  101fe8:	210e0104 	addi	r4,r4,14340
  101fec:	0101f5c0 	call	101f5c <alt_load_section>
  101ff0:	01800434 	movhi	r6,16
  101ff4:	31808c04 	addi	r6,r6,560
  101ff8:	01400434 	movhi	r5,16
  101ffc:	29400804 	addi	r5,r5,32
  102000:	01000434 	movhi	r4,16
  102004:	21000804 	addi	r4,r4,32
  102008:	0101f5c0 	call	101f5c <alt_load_section>
  10200c:	01800834 	movhi	r6,32
  102010:	31800704 	addi	r6,r6,28
  102014:	01400834 	movhi	r5,32
  102018:	29400004 	addi	r5,r5,0
  10201c:	01000434 	movhi	r4,16
  102020:	210dfa04 	addi	r4,r4,14312
  102024:	0101f5c0 	call	101f5c <alt_load_section>
  102028:	0102ee00 	call	102ee0 <alt_dcache_flush_all>
  10202c:	01030cc0 	call	1030cc <alt_icache_flush_all>
  102030:	0001883a 	nop
  102034:	e037883a 	mov	sp,fp
  102038:	dfc00117 	ldw	ra,4(sp)
  10203c:	df000017 	ldw	fp,0(sp)
  102040:	dec00204 	addi	sp,sp,8
  102044:	f800283a 	ret

00102048 <alt_main>:
  102048:	defffd04 	addi	sp,sp,-12
  10204c:	dfc00215 	stw	ra,8(sp)
  102050:	df000115 	stw	fp,4(sp)
  102054:	df000104 	addi	fp,sp,4
  102058:	0009883a 	mov	r4,zero
  10205c:	010210c0 	call	10210c <alt_irq_init>
  102060:	0001883a 	nop
  102064:	01021440 	call	102144 <alt_sys_init>
  102068:	010300c0 	call	10300c <_do_ctors>
  10206c:	01000434 	movhi	r4,16
  102070:	210c1b04 	addi	r4,r4,12396
  102074:	01034d00 	call	1034d0 <atexit>
  102078:	d0a02517 	ldw	r2,-32620(gp)
  10207c:	d0e02617 	ldw	r3,-32616(gp)
  102080:	d1202717 	ldw	r4,-32612(gp)
  102084:	200d883a 	mov	r6,r4
  102088:	180b883a 	mov	r5,r3
  10208c:	1009883a 	mov	r4,r2
  102090:	01006480 	call	100648 <main>
  102094:	e0bfff15 	stw	r2,-4(fp)
  102098:	01000044 	movi	r4,1
  10209c:	0102e080 	call	102e08 <close>
  1020a0:	e13fff17 	ldw	r4,-4(fp)
  1020a4:	01034e40 	call	1034e4 <exit>

001020a8 <usleep>:
  1020a8:	defffd04 	addi	sp,sp,-12
  1020ac:	dfc00215 	stw	ra,8(sp)
  1020b0:	df000115 	stw	fp,4(sp)
  1020b4:	df000104 	addi	fp,sp,4
  1020b8:	e13fff15 	stw	r4,-4(fp)
  1020bc:	e13fff17 	ldw	r4,-4(fp)
  1020c0:	0102c740 	call	102c74 <alt_busy_sleep>
  1020c4:	e037883a 	mov	sp,fp
  1020c8:	dfc00117 	ldw	ra,4(sp)
  1020cc:	df000017 	ldw	fp,0(sp)
  1020d0:	dec00204 	addi	sp,sp,8
  1020d4:	f800283a 	ret

001020d8 <alt_dev_reg>:
  1020d8:	defffd04 	addi	sp,sp,-12
  1020dc:	dfc00215 	stw	ra,8(sp)
  1020e0:	df000115 	stw	fp,4(sp)
  1020e4:	df000104 	addi	fp,sp,4
  1020e8:	e13fff15 	stw	r4,-4(fp)
  1020ec:	d1600904 	addi	r5,gp,-32732
  1020f0:	e13fff17 	ldw	r4,-4(fp)
  1020f4:	0102f680 	call	102f68 <alt_dev_llist_insert>
  1020f8:	e037883a 	mov	sp,fp
  1020fc:	dfc00117 	ldw	ra,4(sp)
  102100:	df000017 	ldw	fp,0(sp)
  102104:	dec00204 	addi	sp,sp,8
  102108:	f800283a 	ret

0010210c <alt_irq_init>:
  10210c:	defffd04 	addi	sp,sp,-12
  102110:	dfc00215 	stw	ra,8(sp)
  102114:	df000115 	stw	fp,4(sp)
  102118:	df000104 	addi	fp,sp,4
  10211c:	e13fff15 	stw	r4,-4(fp)
  102120:	01034100 	call	103410 <altera_nios2_gen2_irq_init>
  102124:	00800044 	movi	r2,1
  102128:	1001703a 	wrctl	status,r2
  10212c:	0001883a 	nop
  102130:	e037883a 	mov	sp,fp
  102134:	dfc00117 	ldw	ra,4(sp)
  102138:	df000017 	ldw	fp,0(sp)
  10213c:	dec00204 	addi	sp,sp,8
  102140:	f800283a 	ret

00102144 <alt_sys_init>:
  102144:	defffe04 	addi	sp,sp,-8
  102148:	dfc00115 	stw	ra,4(sp)
  10214c:	df000015 	stw	fp,0(sp)
  102150:	d839883a 	mov	fp,sp
  102154:	0001883a 	nop
  102158:	0001883a 	nop
  10215c:	0001883a 	nop
  102160:	0001883a 	nop
  102164:	01800044 	movi	r6,1
  102168:	000b883a 	mov	r5,zero
  10216c:	01000834 	movhi	r4,32
  102170:	21001104 	addi	r4,r4,68
  102174:	01024ac0 	call	1024ac <altera_avalon_uart_init>
  102178:	01000834 	movhi	r4,32
  10217c:	21000704 	addi	r4,r4,28
  102180:	01020d80 	call	1020d8 <alt_dev_reg>
  102184:	0001883a 	nop
  102188:	0001883a 	nop
  10218c:	e037883a 	mov	sp,fp
  102190:	dfc00117 	ldw	ra,4(sp)
  102194:	df000017 	ldw	fp,0(sp)
  102198:	dec00204 	addi	sp,sp,8
  10219c:	f800283a 	ret

001021a0 <alt_avalon_spi_command>:
  1021a0:	defff404 	addi	sp,sp,-48
  1021a4:	df000b15 	stw	fp,44(sp)
  1021a8:	df000b04 	addi	fp,sp,44
  1021ac:	e13ffc15 	stw	r4,-16(fp)
  1021b0:	e17ffd15 	stw	r5,-12(fp)
  1021b4:	e1bffe15 	stw	r6,-8(fp)
  1021b8:	e1ffff15 	stw	r7,-4(fp)
  1021bc:	e0ffff17 	ldw	r3,-4(fp)
  1021c0:	e0bffe17 	ldw	r2,-8(fp)
  1021c4:	1885883a 	add	r2,r3,r2
  1021c8:	e0bff815 	stw	r2,-32(fp)
  1021cc:	e0c00217 	ldw	r3,8(fp)
  1021d0:	e0800117 	ldw	r2,4(fp)
  1021d4:	1885883a 	add	r2,r3,r2
  1021d8:	e0bff915 	stw	r2,-28(fp)
  1021dc:	e0800117 	ldw	r2,4(fp)
  1021e0:	e0bff515 	stw	r2,-44(fp)
  1021e4:	e0bffe17 	ldw	r2,-8(fp)
  1021e8:	e0bff615 	stw	r2,-40(fp)
  1021ec:	00800044 	movi	r2,1
  1021f0:	e0bff715 	stw	r2,-36(fp)
  1021f4:	e0bffc17 	ldw	r2,-16(fp)
  1021f8:	10800504 	addi	r2,r2,20
  1021fc:	1009883a 	mov	r4,r2
  102200:	00c00044 	movi	r3,1
  102204:	e0bffd17 	ldw	r2,-12(fp)
  102208:	1884983a 	sll	r2,r3,r2
  10220c:	20800035 	stwio	r2,0(r4)
  102210:	e0800317 	ldw	r2,12(fp)
  102214:	1080008c 	andi	r2,r2,2
  102218:	1000051e 	bne	r2,zero,102230 <alt_avalon_spi_command+0x90>
  10221c:	e0bffc17 	ldw	r2,-16(fp)
  102220:	10800304 	addi	r2,r2,12
  102224:	1007883a 	mov	r3,r2
  102228:	00810004 	movi	r2,1024
  10222c:	18800035 	stwio	r2,0(r3)
  102230:	e0bffc17 	ldw	r2,-16(fp)
  102234:	10800037 	ldwio	r2,0(r2)
  102238:	e0bffc17 	ldw	r2,-16(fp)
  10223c:	10800204 	addi	r2,r2,8
  102240:	10800037 	ldwio	r2,0(r2)
  102244:	e0bffa15 	stw	r2,-24(fp)
  102248:	e0bffa17 	ldw	r2,-24(fp)
  10224c:	1080100c 	andi	r2,r2,64
  102250:	10000226 	beq	r2,zero,10225c <alt_avalon_spi_command+0xbc>
  102254:	e0bff717 	ldw	r2,-36(fp)
  102258:	1000031e 	bne	r2,zero,102268 <alt_avalon_spi_command+0xc8>
  10225c:	e0bffa17 	ldw	r2,-24(fp)
  102260:	1080200c 	andi	r2,r2,128
  102264:	103ff426 	beq	r2,zero,102238 <_gp+0xffef9b8c>
  102268:	e0bffa17 	ldw	r2,-24(fp)
  10226c:	1080100c 	andi	r2,r2,64
  102270:	10001e26 	beq	r2,zero,1022ec <alt_avalon_spi_command+0x14c>
  102274:	e0bff717 	ldw	r2,-36(fp)
  102278:	00801c0e 	bge	zero,r2,1022ec <alt_avalon_spi_command+0x14c>
  10227c:	e0bff717 	ldw	r2,-36(fp)
  102280:	10bfffc4 	addi	r2,r2,-1
  102284:	e0bff715 	stw	r2,-36(fp)
  102288:	e0ffff17 	ldw	r3,-4(fp)
  10228c:	e0bff817 	ldw	r2,-32(fp)
  102290:	18800a2e 	bgeu	r3,r2,1022bc <alt_avalon_spi_command+0x11c>
  102294:	e0bffc17 	ldw	r2,-16(fp)
  102298:	10800104 	addi	r2,r2,4
  10229c:	1009883a 	mov	r4,r2
  1022a0:	e0bfff17 	ldw	r2,-4(fp)
  1022a4:	10c00044 	addi	r3,r2,1
  1022a8:	e0ffff15 	stw	r3,-4(fp)
  1022ac:	10800003 	ldbu	r2,0(r2)
  1022b0:	10803fcc 	andi	r2,r2,255
  1022b4:	20800035 	stwio	r2,0(r4)
  1022b8:	00000c06 	br	1022ec <alt_avalon_spi_command+0x14c>
  1022bc:	e0bff517 	ldw	r2,-44(fp)
  1022c0:	10000826 	beq	r2,zero,1022e4 <alt_avalon_spi_command+0x144>
  1022c4:	e0bff517 	ldw	r2,-44(fp)
  1022c8:	10bfffc4 	addi	r2,r2,-1
  1022cc:	e0bff515 	stw	r2,-44(fp)
  1022d0:	e0bffc17 	ldw	r2,-16(fp)
  1022d4:	10800104 	addi	r2,r2,4
  1022d8:	0007883a 	mov	r3,zero
  1022dc:	10c00035 	stwio	r3,0(r2)
  1022e0:	00000206 	br	1022ec <alt_avalon_spi_command+0x14c>
  1022e4:	00bf0004 	movi	r2,-1024
  1022e8:	e0bff715 	stw	r2,-36(fp)
  1022ec:	e0bffa17 	ldw	r2,-24(fp)
  1022f0:	1080200c 	andi	r2,r2,128
  1022f4:	103fd026 	beq	r2,zero,102238 <_gp+0xffef9b8c>
  1022f8:	e0bffc17 	ldw	r2,-16(fp)
  1022fc:	10800037 	ldwio	r2,0(r2)
  102300:	e0bffb15 	stw	r2,-20(fp)
  102304:	e0bff617 	ldw	r2,-40(fp)
  102308:	10000426 	beq	r2,zero,10231c <alt_avalon_spi_command+0x17c>
  10230c:	e0bff617 	ldw	r2,-40(fp)
  102310:	10bfffc4 	addi	r2,r2,-1
  102314:	e0bff615 	stw	r2,-40(fp)
  102318:	00000506 	br	102330 <alt_avalon_spi_command+0x190>
  10231c:	e0800217 	ldw	r2,8(fp)
  102320:	10c00044 	addi	r3,r2,1
  102324:	e0c00215 	stw	r3,8(fp)
  102328:	e0fffb17 	ldw	r3,-20(fp)
  10232c:	10c00005 	stb	r3,0(r2)
  102330:	e0bff717 	ldw	r2,-36(fp)
  102334:	10800044 	addi	r2,r2,1
  102338:	e0bff715 	stw	r2,-36(fp)
  10233c:	e0bff617 	ldw	r2,-40(fp)
  102340:	103fbd1e 	bne	r2,zero,102238 <_gp+0xffef9b8c>
  102344:	e0c00217 	ldw	r3,8(fp)
  102348:	e0bff917 	ldw	r2,-28(fp)
  10234c:	18bfba1e 	bne	r3,r2,102238 <_gp+0xffef9b8c>
  102350:	e0bffc17 	ldw	r2,-16(fp)
  102354:	10800204 	addi	r2,r2,8
  102358:	10800037 	ldwio	r2,0(r2)
  10235c:	e0bffa15 	stw	r2,-24(fp)
  102360:	e0bffa17 	ldw	r2,-24(fp)
  102364:	1080080c 	andi	r2,r2,32
  102368:	103ff926 	beq	r2,zero,102350 <_gp+0xffef9ca4>
  10236c:	e0800317 	ldw	r2,12(fp)
  102370:	1080004c 	andi	r2,r2,1
  102374:	1000041e 	bne	r2,zero,102388 <alt_avalon_spi_command+0x1e8>
  102378:	e0bffc17 	ldw	r2,-16(fp)
  10237c:	10800304 	addi	r2,r2,12
  102380:	0007883a 	mov	r3,zero
  102384:	10c00035 	stwio	r3,0(r2)
  102388:	e0800117 	ldw	r2,4(fp)
  10238c:	e037883a 	mov	sp,fp
  102390:	df000017 	ldw	fp,0(sp)
  102394:	dec00104 	addi	sp,sp,4
  102398:	f800283a 	ret

0010239c <altera_avalon_uart_read_fd>:
  10239c:	defffa04 	addi	sp,sp,-24
  1023a0:	dfc00515 	stw	ra,20(sp)
  1023a4:	df000415 	stw	fp,16(sp)
  1023a8:	df000404 	addi	fp,sp,16
  1023ac:	e13ffd15 	stw	r4,-12(fp)
  1023b0:	e17ffe15 	stw	r5,-8(fp)
  1023b4:	e1bfff15 	stw	r6,-4(fp)
  1023b8:	e0bffd17 	ldw	r2,-12(fp)
  1023bc:	10800017 	ldw	r2,0(r2)
  1023c0:	e0bffc15 	stw	r2,-16(fp)
  1023c4:	e0bffc17 	ldw	r2,-16(fp)
  1023c8:	10c00a04 	addi	r3,r2,40
  1023cc:	e0bffd17 	ldw	r2,-12(fp)
  1023d0:	10800217 	ldw	r2,8(r2)
  1023d4:	100f883a 	mov	r7,r2
  1023d8:	e1bfff17 	ldw	r6,-4(fp)
  1023dc:	e17ffe17 	ldw	r5,-8(fp)
  1023e0:	1809883a 	mov	r4,r3
  1023e4:	01028b00 	call	1028b0 <altera_avalon_uart_read>
  1023e8:	e037883a 	mov	sp,fp
  1023ec:	dfc00117 	ldw	ra,4(sp)
  1023f0:	df000017 	ldw	fp,0(sp)
  1023f4:	dec00204 	addi	sp,sp,8
  1023f8:	f800283a 	ret

001023fc <altera_avalon_uart_write_fd>:
  1023fc:	defffa04 	addi	sp,sp,-24
  102400:	dfc00515 	stw	ra,20(sp)
  102404:	df000415 	stw	fp,16(sp)
  102408:	df000404 	addi	fp,sp,16
  10240c:	e13ffd15 	stw	r4,-12(fp)
  102410:	e17ffe15 	stw	r5,-8(fp)
  102414:	e1bfff15 	stw	r6,-4(fp)
  102418:	e0bffd17 	ldw	r2,-12(fp)
  10241c:	10800017 	ldw	r2,0(r2)
  102420:	e0bffc15 	stw	r2,-16(fp)
  102424:	e0bffc17 	ldw	r2,-16(fp)
  102428:	10c00a04 	addi	r3,r2,40
  10242c:	e0bffd17 	ldw	r2,-12(fp)
  102430:	10800217 	ldw	r2,8(r2)
  102434:	100f883a 	mov	r7,r2
  102438:	e1bfff17 	ldw	r6,-4(fp)
  10243c:	e17ffe17 	ldw	r5,-8(fp)
  102440:	1809883a 	mov	r4,r3
  102444:	0102ac80 	call	102ac8 <altera_avalon_uart_write>
  102448:	e037883a 	mov	sp,fp
  10244c:	dfc00117 	ldw	ra,4(sp)
  102450:	df000017 	ldw	fp,0(sp)
  102454:	dec00204 	addi	sp,sp,8
  102458:	f800283a 	ret

0010245c <altera_avalon_uart_close_fd>:
  10245c:	defffc04 	addi	sp,sp,-16
  102460:	dfc00315 	stw	ra,12(sp)
  102464:	df000215 	stw	fp,8(sp)
  102468:	df000204 	addi	fp,sp,8
  10246c:	e13fff15 	stw	r4,-4(fp)
  102470:	e0bfff17 	ldw	r2,-4(fp)
  102474:	10800017 	ldw	r2,0(r2)
  102478:	e0bffe15 	stw	r2,-8(fp)
  10247c:	e0bffe17 	ldw	r2,-8(fp)
  102480:	10c00a04 	addi	r3,r2,40
  102484:	e0bfff17 	ldw	r2,-4(fp)
  102488:	10800217 	ldw	r2,8(r2)
  10248c:	100b883a 	mov	r5,r2
  102490:	1809883a 	mov	r4,r3
  102494:	01028200 	call	102820 <altera_avalon_uart_close>
  102498:	e037883a 	mov	sp,fp
  10249c:	dfc00117 	ldw	ra,4(sp)
  1024a0:	df000017 	ldw	fp,0(sp)
  1024a4:	dec00204 	addi	sp,sp,8
  1024a8:	f800283a 	ret

001024ac <altera_avalon_uart_init>:
  1024ac:	defff804 	addi	sp,sp,-32
  1024b0:	dfc00715 	stw	ra,28(sp)
  1024b4:	df000615 	stw	fp,24(sp)
  1024b8:	df000604 	addi	fp,sp,24
  1024bc:	e13ffd15 	stw	r4,-12(fp)
  1024c0:	e17ffe15 	stw	r5,-8(fp)
  1024c4:	e1bfff15 	stw	r6,-4(fp)
  1024c8:	e0bffd17 	ldw	r2,-12(fp)
  1024cc:	10800017 	ldw	r2,0(r2)
  1024d0:	e0bffb15 	stw	r2,-20(fp)
  1024d4:	0005883a 	mov	r2,zero
  1024d8:	1000041e 	bne	r2,zero,1024ec <altera_avalon_uart_init+0x40>
  1024dc:	0005883a 	mov	r2,zero
  1024e0:	1000021e 	bne	r2,zero,1024ec <altera_avalon_uart_init+0x40>
  1024e4:	0005883a 	mov	r2,zero
  1024e8:	10000226 	beq	r2,zero,1024f4 <altera_avalon_uart_init+0x48>
  1024ec:	00800044 	movi	r2,1
  1024f0:	00000106 	br	1024f8 <altera_avalon_uart_init+0x4c>
  1024f4:	0005883a 	mov	r2,zero
  1024f8:	e0bffc15 	stw	r2,-16(fp)
  1024fc:	e0bffc17 	ldw	r2,-16(fp)
  102500:	10000f1e 	bne	r2,zero,102540 <altera_avalon_uart_init+0x94>
  102504:	e0bffd17 	ldw	r2,-12(fp)
  102508:	00c32004 	movi	r3,3200
  10250c:	10c00115 	stw	r3,4(r2)
  102510:	e0bffb17 	ldw	r2,-20(fp)
  102514:	10800304 	addi	r2,r2,12
  102518:	e0fffd17 	ldw	r3,-12(fp)
  10251c:	18c00117 	ldw	r3,4(r3)
  102520:	10c00035 	stwio	r3,0(r2)
  102524:	d8000015 	stw	zero,0(sp)
  102528:	e1fffd17 	ldw	r7,-12(fp)
  10252c:	01800434 	movhi	r6,16
  102530:	31895604 	addi	r6,r6,9560
  102534:	e17fff17 	ldw	r5,-4(fp)
  102538:	e13ffe17 	ldw	r4,-8(fp)
  10253c:	01030ec0 	call	1030ec <alt_ic_isr_register>
  102540:	0001883a 	nop
  102544:	e037883a 	mov	sp,fp
  102548:	dfc00117 	ldw	ra,4(sp)
  10254c:	df000017 	ldw	fp,0(sp)
  102550:	dec00204 	addi	sp,sp,8
  102554:	f800283a 	ret

00102558 <altera_avalon_uart_irq>:
  102558:	defffa04 	addi	sp,sp,-24
  10255c:	dfc00515 	stw	ra,20(sp)
  102560:	df000415 	stw	fp,16(sp)
  102564:	df000404 	addi	fp,sp,16
  102568:	e13fff15 	stw	r4,-4(fp)
  10256c:	e0bfff17 	ldw	r2,-4(fp)
  102570:	e0bffc15 	stw	r2,-16(fp)
  102574:	e0bffc17 	ldw	r2,-16(fp)
  102578:	10800017 	ldw	r2,0(r2)
  10257c:	e0bffd15 	stw	r2,-12(fp)
  102580:	e0bffd17 	ldw	r2,-12(fp)
  102584:	10800204 	addi	r2,r2,8
  102588:	10800037 	ldwio	r2,0(r2)
  10258c:	e0bffe15 	stw	r2,-8(fp)
  102590:	e0bffd17 	ldw	r2,-12(fp)
  102594:	10800204 	addi	r2,r2,8
  102598:	0007883a 	mov	r3,zero
  10259c:	10c00035 	stwio	r3,0(r2)
  1025a0:	e0bffd17 	ldw	r2,-12(fp)
  1025a4:	10800204 	addi	r2,r2,8
  1025a8:	10800037 	ldwio	r2,0(r2)
  1025ac:	e0bffe17 	ldw	r2,-8(fp)
  1025b0:	1080200c 	andi	r2,r2,128
  1025b4:	10000326 	beq	r2,zero,1025c4 <altera_avalon_uart_irq+0x6c>
  1025b8:	e17ffe17 	ldw	r5,-8(fp)
  1025bc:	e13ffc17 	ldw	r4,-16(fp)
  1025c0:	01025f40 	call	1025f4 <altera_avalon_uart_rxirq>
  1025c4:	e0bffe17 	ldw	r2,-8(fp)
  1025c8:	1081100c 	andi	r2,r2,1088
  1025cc:	10000326 	beq	r2,zero,1025dc <altera_avalon_uart_irq+0x84>
  1025d0:	e17ffe17 	ldw	r5,-8(fp)
  1025d4:	e13ffc17 	ldw	r4,-16(fp)
  1025d8:	01026d80 	call	1026d8 <altera_avalon_uart_txirq>
  1025dc:	0001883a 	nop
  1025e0:	e037883a 	mov	sp,fp
  1025e4:	dfc00117 	ldw	ra,4(sp)
  1025e8:	df000017 	ldw	fp,0(sp)
  1025ec:	dec00204 	addi	sp,sp,8
  1025f0:	f800283a 	ret

001025f4 <altera_avalon_uart_rxirq>:
  1025f4:	defffc04 	addi	sp,sp,-16
  1025f8:	df000315 	stw	fp,12(sp)
  1025fc:	df000304 	addi	fp,sp,12
  102600:	e13ffe15 	stw	r4,-8(fp)
  102604:	e17fff15 	stw	r5,-4(fp)
  102608:	e0bfff17 	ldw	r2,-4(fp)
  10260c:	108000cc 	andi	r2,r2,3
  102610:	10002c1e 	bne	r2,zero,1026c4 <altera_avalon_uart_rxirq+0xd0>
  102614:	e0bffe17 	ldw	r2,-8(fp)
  102618:	10800317 	ldw	r2,12(r2)
  10261c:	e0bffe17 	ldw	r2,-8(fp)
  102620:	10800217 	ldw	r2,8(r2)
  102624:	e0bffe17 	ldw	r2,-8(fp)
  102628:	10800317 	ldw	r2,12(r2)
  10262c:	10800044 	addi	r2,r2,1
  102630:	10800fcc 	andi	r2,r2,63
  102634:	e0bffd15 	stw	r2,-12(fp)
  102638:	e0bffe17 	ldw	r2,-8(fp)
  10263c:	10800317 	ldw	r2,12(r2)
  102640:	e0fffe17 	ldw	r3,-8(fp)
  102644:	18c00017 	ldw	r3,0(r3)
  102648:	18c00037 	ldwio	r3,0(r3)
  10264c:	1809883a 	mov	r4,r3
  102650:	e0fffe17 	ldw	r3,-8(fp)
  102654:	1885883a 	add	r2,r3,r2
  102658:	10800704 	addi	r2,r2,28
  10265c:	11000005 	stb	r4,0(r2)
  102660:	e0bffe17 	ldw	r2,-8(fp)
  102664:	e0fffd17 	ldw	r3,-12(fp)
  102668:	10c00315 	stw	r3,12(r2)
  10266c:	e0bffe17 	ldw	r2,-8(fp)
  102670:	10800317 	ldw	r2,12(r2)
  102674:	10800044 	addi	r2,r2,1
  102678:	10800fcc 	andi	r2,r2,63
  10267c:	e0bffd15 	stw	r2,-12(fp)
  102680:	e0bffe17 	ldw	r2,-8(fp)
  102684:	10c00217 	ldw	r3,8(r2)
  102688:	e0bffd17 	ldw	r2,-12(fp)
  10268c:	18800e1e 	bne	r3,r2,1026c8 <altera_avalon_uart_rxirq+0xd4>
  102690:	e0bffe17 	ldw	r2,-8(fp)
  102694:	10c00117 	ldw	r3,4(r2)
  102698:	00bfdfc4 	movi	r2,-129
  10269c:	1886703a 	and	r3,r3,r2
  1026a0:	e0bffe17 	ldw	r2,-8(fp)
  1026a4:	10c00115 	stw	r3,4(r2)
  1026a8:	e0bffe17 	ldw	r2,-8(fp)
  1026ac:	10800017 	ldw	r2,0(r2)
  1026b0:	10800304 	addi	r2,r2,12
  1026b4:	e0fffe17 	ldw	r3,-8(fp)
  1026b8:	18c00117 	ldw	r3,4(r3)
  1026bc:	10c00035 	stwio	r3,0(r2)
  1026c0:	00000106 	br	1026c8 <altera_avalon_uart_rxirq+0xd4>
  1026c4:	0001883a 	nop
  1026c8:	e037883a 	mov	sp,fp
  1026cc:	df000017 	ldw	fp,0(sp)
  1026d0:	dec00104 	addi	sp,sp,4
  1026d4:	f800283a 	ret

001026d8 <altera_avalon_uart_txirq>:
  1026d8:	defffb04 	addi	sp,sp,-20
  1026dc:	df000415 	stw	fp,16(sp)
  1026e0:	df000404 	addi	fp,sp,16
  1026e4:	e13ffc15 	stw	r4,-16(fp)
  1026e8:	e17ffd15 	stw	r5,-12(fp)
  1026ec:	e0bffc17 	ldw	r2,-16(fp)
  1026f0:	10c00417 	ldw	r3,16(r2)
  1026f4:	e0bffc17 	ldw	r2,-16(fp)
  1026f8:	10800517 	ldw	r2,20(r2)
  1026fc:	18803226 	beq	r3,r2,1027c8 <altera_avalon_uart_txirq+0xf0>
  102700:	e0bffc17 	ldw	r2,-16(fp)
  102704:	10800617 	ldw	r2,24(r2)
  102708:	1080008c 	andi	r2,r2,2
  10270c:	10000326 	beq	r2,zero,10271c <altera_avalon_uart_txirq+0x44>
  102710:	e0bffd17 	ldw	r2,-12(fp)
  102714:	1082000c 	andi	r2,r2,2048
  102718:	10001d26 	beq	r2,zero,102790 <altera_avalon_uart_txirq+0xb8>
  10271c:	e0bffc17 	ldw	r2,-16(fp)
  102720:	10800417 	ldw	r2,16(r2)
  102724:	e0bffc17 	ldw	r2,-16(fp)
  102728:	10800517 	ldw	r2,20(r2)
  10272c:	e0bffc17 	ldw	r2,-16(fp)
  102730:	10800017 	ldw	r2,0(r2)
  102734:	10800104 	addi	r2,r2,4
  102738:	e0fffc17 	ldw	r3,-16(fp)
  10273c:	18c00417 	ldw	r3,16(r3)
  102740:	e13ffc17 	ldw	r4,-16(fp)
  102744:	20c7883a 	add	r3,r4,r3
  102748:	18c01704 	addi	r3,r3,92
  10274c:	18c00003 	ldbu	r3,0(r3)
  102750:	18c03fcc 	andi	r3,r3,255
  102754:	10c00035 	stwio	r3,0(r2)
  102758:	e0bffc17 	ldw	r2,-16(fp)
  10275c:	10800417 	ldw	r2,16(r2)
  102760:	10800044 	addi	r2,r2,1
  102764:	e0fffc17 	ldw	r3,-16(fp)
  102768:	18800415 	stw	r2,16(r3)
  10276c:	10c00fcc 	andi	r3,r2,63
  102770:	e0bffc17 	ldw	r2,-16(fp)
  102774:	10c00415 	stw	r3,16(r2)
  102778:	e0bffc17 	ldw	r2,-16(fp)
  10277c:	10800117 	ldw	r2,4(r2)
  102780:	10c01014 	ori	r3,r2,64
  102784:	e0bffc17 	ldw	r2,-16(fp)
  102788:	10c00115 	stw	r3,4(r2)
  10278c:	00000e06 	br	1027c8 <altera_avalon_uart_txirq+0xf0>
  102790:	e0bffc17 	ldw	r2,-16(fp)
  102794:	10800017 	ldw	r2,0(r2)
  102798:	10800204 	addi	r2,r2,8
  10279c:	10800037 	ldwio	r2,0(r2)
  1027a0:	e0bffd15 	stw	r2,-12(fp)
  1027a4:	e0bffd17 	ldw	r2,-12(fp)
  1027a8:	1082000c 	andi	r2,r2,2048
  1027ac:	1000061e 	bne	r2,zero,1027c8 <altera_avalon_uart_txirq+0xf0>
  1027b0:	e0bffc17 	ldw	r2,-16(fp)
  1027b4:	10c00117 	ldw	r3,4(r2)
  1027b8:	00bfefc4 	movi	r2,-65
  1027bc:	1886703a 	and	r3,r3,r2
  1027c0:	e0bffc17 	ldw	r2,-16(fp)
  1027c4:	10c00115 	stw	r3,4(r2)
  1027c8:	e0bffc17 	ldw	r2,-16(fp)
  1027cc:	10c00417 	ldw	r3,16(r2)
  1027d0:	e0bffc17 	ldw	r2,-16(fp)
  1027d4:	10800517 	ldw	r2,20(r2)
  1027d8:	1880061e 	bne	r3,r2,1027f4 <altera_avalon_uart_txirq+0x11c>
  1027dc:	e0bffc17 	ldw	r2,-16(fp)
  1027e0:	10c00117 	ldw	r3,4(r2)
  1027e4:	00beefc4 	movi	r2,-1089
  1027e8:	1886703a 	and	r3,r3,r2
  1027ec:	e0bffc17 	ldw	r2,-16(fp)
  1027f0:	10c00115 	stw	r3,4(r2)
  1027f4:	e0bffc17 	ldw	r2,-16(fp)
  1027f8:	10800017 	ldw	r2,0(r2)
  1027fc:	10800304 	addi	r2,r2,12
  102800:	e0fffc17 	ldw	r3,-16(fp)
  102804:	18c00117 	ldw	r3,4(r3)
  102808:	10c00035 	stwio	r3,0(r2)
  10280c:	0001883a 	nop
  102810:	e037883a 	mov	sp,fp
  102814:	df000017 	ldw	fp,0(sp)
  102818:	dec00104 	addi	sp,sp,4
  10281c:	f800283a 	ret

00102820 <altera_avalon_uart_close>:
  102820:	defffd04 	addi	sp,sp,-12
  102824:	df000215 	stw	fp,8(sp)
  102828:	df000204 	addi	fp,sp,8
  10282c:	e13ffe15 	stw	r4,-8(fp)
  102830:	e17fff15 	stw	r5,-4(fp)
  102834:	00000506 	br	10284c <altera_avalon_uart_close+0x2c>
  102838:	e0bfff17 	ldw	r2,-4(fp)
  10283c:	1090000c 	andi	r2,r2,16384
  102840:	10000226 	beq	r2,zero,10284c <altera_avalon_uart_close+0x2c>
  102844:	00bffd44 	movi	r2,-11
  102848:	00000606 	br	102864 <altera_avalon_uart_close+0x44>
  10284c:	e0bffe17 	ldw	r2,-8(fp)
  102850:	10c00417 	ldw	r3,16(r2)
  102854:	e0bffe17 	ldw	r2,-8(fp)
  102858:	10800517 	ldw	r2,20(r2)
  10285c:	18bff61e 	bne	r3,r2,102838 <_gp+0xffefa18c>
  102860:	0005883a 	mov	r2,zero
  102864:	e037883a 	mov	sp,fp
  102868:	df000017 	ldw	fp,0(sp)
  10286c:	dec00104 	addi	sp,sp,4
  102870:	f800283a 	ret

00102874 <alt_get_errno>:
  102874:	defffe04 	addi	sp,sp,-8
  102878:	dfc00115 	stw	ra,4(sp)
  10287c:	df000015 	stw	fp,0(sp)
  102880:	d839883a 	mov	fp,sp
  102884:	d0a00c17 	ldw	r2,-32720(gp)
  102888:	10000326 	beq	r2,zero,102898 <alt_get_errno+0x24>
  10288c:	d0a00c17 	ldw	r2,-32720(gp)
  102890:	103ee83a 	callr	r2
  102894:	00000106 	br	10289c <alt_get_errno+0x28>
  102898:	d0a02a04 	addi	r2,gp,-32600
  10289c:	e037883a 	mov	sp,fp
  1028a0:	dfc00117 	ldw	ra,4(sp)
  1028a4:	df000017 	ldw	fp,0(sp)
  1028a8:	dec00204 	addi	sp,sp,8
  1028ac:	f800283a 	ret

001028b0 <altera_avalon_uart_read>:
  1028b0:	defff204 	addi	sp,sp,-56
  1028b4:	dfc00d15 	stw	ra,52(sp)
  1028b8:	df000c15 	stw	fp,48(sp)
  1028bc:	df000c04 	addi	fp,sp,48
  1028c0:	e13ffc15 	stw	r4,-16(fp)
  1028c4:	e17ffd15 	stw	r5,-12(fp)
  1028c8:	e1bffe15 	stw	r6,-8(fp)
  1028cc:	e1ffff15 	stw	r7,-4(fp)
  1028d0:	e03ff405 	stb	zero,-48(fp)
  1028d4:	e03ff515 	stw	zero,-44(fp)
  1028d8:	e0bfff17 	ldw	r2,-4(fp)
  1028dc:	1090000c 	andi	r2,r2,16384
  1028e0:	1005003a 	cmpeq	r2,r2,zero
  1028e4:	10803fcc 	andi	r2,r2,255
  1028e8:	e0bff615 	stw	r2,-40(fp)
  1028ec:	00001306 	br	10293c <altera_avalon_uart_read+0x8c>
  1028f0:	e0bff517 	ldw	r2,-44(fp)
  1028f4:	10800044 	addi	r2,r2,1
  1028f8:	e0bff515 	stw	r2,-44(fp)
  1028fc:	e0bffd17 	ldw	r2,-12(fp)
  102900:	10c00044 	addi	r3,r2,1
  102904:	e0fffd15 	stw	r3,-12(fp)
  102908:	e0fffc17 	ldw	r3,-16(fp)
  10290c:	18c00217 	ldw	r3,8(r3)
  102910:	e13ffc17 	ldw	r4,-16(fp)
  102914:	20c7883a 	add	r3,r4,r3
  102918:	18c00704 	addi	r3,r3,28
  10291c:	18c00003 	ldbu	r3,0(r3)
  102920:	10c00005 	stb	r3,0(r2)
  102924:	e0bffc17 	ldw	r2,-16(fp)
  102928:	10800217 	ldw	r2,8(r2)
  10292c:	10800044 	addi	r2,r2,1
  102930:	10c00fcc 	andi	r3,r2,63
  102934:	e0bffc17 	ldw	r2,-16(fp)
  102938:	10c00215 	stw	r3,8(r2)
  10293c:	e0fff517 	ldw	r3,-44(fp)
  102940:	e0bffe17 	ldw	r2,-8(fp)
  102944:	1880050e 	bge	r3,r2,10295c <altera_avalon_uart_read+0xac>
  102948:	e0bffc17 	ldw	r2,-16(fp)
  10294c:	10c00217 	ldw	r3,8(r2)
  102950:	e0bffc17 	ldw	r2,-16(fp)
  102954:	10800317 	ldw	r2,12(r2)
  102958:	18bfe51e 	bne	r3,r2,1028f0 <_gp+0xffefa244>
  10295c:	e0bff517 	ldw	r2,-44(fp)
  102960:	1000251e 	bne	r2,zero,1029f8 <altera_avalon_uart_read+0x148>
  102964:	e0bffc17 	ldw	r2,-16(fp)
  102968:	10c00217 	ldw	r3,8(r2)
  10296c:	e0bffc17 	ldw	r2,-16(fp)
  102970:	10800317 	ldw	r2,12(r2)
  102974:	1880201e 	bne	r3,r2,1029f8 <altera_avalon_uart_read+0x148>
  102978:	e0bff617 	ldw	r2,-40(fp)
  10297c:	1000071e 	bne	r2,zero,10299c <altera_avalon_uart_read+0xec>
  102980:	01028740 	call	102874 <alt_get_errno>
  102984:	1007883a 	mov	r3,r2
  102988:	008002c4 	movi	r2,11
  10298c:	18800015 	stw	r2,0(r3)
  102990:	00800044 	movi	r2,1
  102994:	e0bff405 	stb	r2,-48(fp)
  102998:	00001b06 	br	102a08 <altera_avalon_uart_read+0x158>
  10299c:	0005303a 	rdctl	r2,status
  1029a0:	e0bff915 	stw	r2,-28(fp)
  1029a4:	e0fff917 	ldw	r3,-28(fp)
  1029a8:	00bfff84 	movi	r2,-2
  1029ac:	1884703a 	and	r2,r3,r2
  1029b0:	1001703a 	wrctl	status,r2
  1029b4:	e0bff917 	ldw	r2,-28(fp)
  1029b8:	e0bff815 	stw	r2,-32(fp)
  1029bc:	e0bffc17 	ldw	r2,-16(fp)
  1029c0:	10800117 	ldw	r2,4(r2)
  1029c4:	10c02014 	ori	r3,r2,128
  1029c8:	e0bffc17 	ldw	r2,-16(fp)
  1029cc:	10c00115 	stw	r3,4(r2)
  1029d0:	e0bffc17 	ldw	r2,-16(fp)
  1029d4:	10800017 	ldw	r2,0(r2)
  1029d8:	10800304 	addi	r2,r2,12
  1029dc:	e0fffc17 	ldw	r3,-16(fp)
  1029e0:	18c00117 	ldw	r3,4(r3)
  1029e4:	10c00035 	stwio	r3,0(r2)
  1029e8:	e0bff817 	ldw	r2,-32(fp)
  1029ec:	e0bffa15 	stw	r2,-24(fp)
  1029f0:	e0bffa17 	ldw	r2,-24(fp)
  1029f4:	1001703a 	wrctl	status,r2
  1029f8:	e0bff517 	ldw	r2,-44(fp)
  1029fc:	1000021e 	bne	r2,zero,102a08 <altera_avalon_uart_read+0x158>
  102a00:	e0bffe17 	ldw	r2,-8(fp)
  102a04:	103fcd1e 	bne	r2,zero,10293c <_gp+0xffefa290>
  102a08:	0005303a 	rdctl	r2,status
  102a0c:	e0bffb15 	stw	r2,-20(fp)
  102a10:	e0fffb17 	ldw	r3,-20(fp)
  102a14:	00bfff84 	movi	r2,-2
  102a18:	1884703a 	and	r2,r3,r2
  102a1c:	1001703a 	wrctl	status,r2
  102a20:	e0bffb17 	ldw	r2,-20(fp)
  102a24:	e0bff815 	stw	r2,-32(fp)
  102a28:	e0bffc17 	ldw	r2,-16(fp)
  102a2c:	10800117 	ldw	r2,4(r2)
  102a30:	10c02014 	ori	r3,r2,128
  102a34:	e0bffc17 	ldw	r2,-16(fp)
  102a38:	10c00115 	stw	r3,4(r2)
  102a3c:	e0bffc17 	ldw	r2,-16(fp)
  102a40:	10800017 	ldw	r2,0(r2)
  102a44:	10800304 	addi	r2,r2,12
  102a48:	e0fffc17 	ldw	r3,-16(fp)
  102a4c:	18c00117 	ldw	r3,4(r3)
  102a50:	10c00035 	stwio	r3,0(r2)
  102a54:	e0bff817 	ldw	r2,-32(fp)
  102a58:	e0bff715 	stw	r2,-36(fp)
  102a5c:	e0bff717 	ldw	r2,-36(fp)
  102a60:	1001703a 	wrctl	status,r2
  102a64:	e0bff403 	ldbu	r2,-48(fp)
  102a68:	10000226 	beq	r2,zero,102a74 <altera_avalon_uart_read+0x1c4>
  102a6c:	00bffd44 	movi	r2,-11
  102a70:	00000106 	br	102a78 <altera_avalon_uart_read+0x1c8>
  102a74:	e0bff517 	ldw	r2,-44(fp)
  102a78:	e037883a 	mov	sp,fp
  102a7c:	dfc00117 	ldw	ra,4(sp)
  102a80:	df000017 	ldw	fp,0(sp)
  102a84:	dec00204 	addi	sp,sp,8
  102a88:	f800283a 	ret

00102a8c <alt_get_errno>:
  102a8c:	defffe04 	addi	sp,sp,-8
  102a90:	dfc00115 	stw	ra,4(sp)
  102a94:	df000015 	stw	fp,0(sp)
  102a98:	d839883a 	mov	fp,sp
  102a9c:	d0a00c17 	ldw	r2,-32720(gp)
  102aa0:	10000326 	beq	r2,zero,102ab0 <alt_get_errno+0x24>
  102aa4:	d0a00c17 	ldw	r2,-32720(gp)
  102aa8:	103ee83a 	callr	r2
  102aac:	00000106 	br	102ab4 <alt_get_errno+0x28>
  102ab0:	d0a02a04 	addi	r2,gp,-32600
  102ab4:	e037883a 	mov	sp,fp
  102ab8:	dfc00117 	ldw	ra,4(sp)
  102abc:	df000017 	ldw	fp,0(sp)
  102ac0:	dec00204 	addi	sp,sp,8
  102ac4:	f800283a 	ret

00102ac8 <altera_avalon_uart_write>:
  102ac8:	defff204 	addi	sp,sp,-56
  102acc:	dfc00d15 	stw	ra,52(sp)
  102ad0:	df000c15 	stw	fp,48(sp)
  102ad4:	df000c04 	addi	fp,sp,48
  102ad8:	e13ffc15 	stw	r4,-16(fp)
  102adc:	e17ffd15 	stw	r5,-12(fp)
  102ae0:	e1bffe15 	stw	r6,-8(fp)
  102ae4:	e1ffff15 	stw	r7,-4(fp)
  102ae8:	e0bffe17 	ldw	r2,-8(fp)
  102aec:	e0bff415 	stw	r2,-48(fp)
  102af0:	e0bfff17 	ldw	r2,-4(fp)
  102af4:	1090000c 	andi	r2,r2,16384
  102af8:	e0bff515 	stw	r2,-44(fp)
  102afc:	00003c06 	br	102bf0 <altera_avalon_uart_write+0x128>
  102b00:	e0bffc17 	ldw	r2,-16(fp)
  102b04:	10800517 	ldw	r2,20(r2)
  102b08:	10800044 	addi	r2,r2,1
  102b0c:	10800fcc 	andi	r2,r2,63
  102b10:	e0bff715 	stw	r2,-36(fp)
  102b14:	e0bffc17 	ldw	r2,-16(fp)
  102b18:	10c00417 	ldw	r3,16(r2)
  102b1c:	e0bff717 	ldw	r2,-36(fp)
  102b20:	1880221e 	bne	r3,r2,102bac <altera_avalon_uart_write+0xe4>
  102b24:	e0bff517 	ldw	r2,-44(fp)
  102b28:	10000526 	beq	r2,zero,102b40 <altera_avalon_uart_write+0x78>
  102b2c:	0102a8c0 	call	102a8c <alt_get_errno>
  102b30:	1007883a 	mov	r3,r2
  102b34:	008002c4 	movi	r2,11
  102b38:	18800015 	stw	r2,0(r3)
  102b3c:	00002e06 	br	102bf8 <altera_avalon_uart_write+0x130>
  102b40:	0005303a 	rdctl	r2,status
  102b44:	e0bff915 	stw	r2,-28(fp)
  102b48:	e0fff917 	ldw	r3,-28(fp)
  102b4c:	00bfff84 	movi	r2,-2
  102b50:	1884703a 	and	r2,r3,r2
  102b54:	1001703a 	wrctl	status,r2
  102b58:	e0bff917 	ldw	r2,-28(fp)
  102b5c:	e0bff815 	stw	r2,-32(fp)
  102b60:	e0bffc17 	ldw	r2,-16(fp)
  102b64:	10800117 	ldw	r2,4(r2)
  102b68:	10c11014 	ori	r3,r2,1088
  102b6c:	e0bffc17 	ldw	r2,-16(fp)
  102b70:	10c00115 	stw	r3,4(r2)
  102b74:	e0bffc17 	ldw	r2,-16(fp)
  102b78:	10800017 	ldw	r2,0(r2)
  102b7c:	10800304 	addi	r2,r2,12
  102b80:	e0fffc17 	ldw	r3,-16(fp)
  102b84:	18c00117 	ldw	r3,4(r3)
  102b88:	10c00035 	stwio	r3,0(r2)
  102b8c:	e0bff817 	ldw	r2,-32(fp)
  102b90:	e0bff615 	stw	r2,-40(fp)
  102b94:	e0bff617 	ldw	r2,-40(fp)
  102b98:	1001703a 	wrctl	status,r2
  102b9c:	e0bffc17 	ldw	r2,-16(fp)
  102ba0:	10c00417 	ldw	r3,16(r2)
  102ba4:	e0bff717 	ldw	r2,-36(fp)
  102ba8:	18bffc26 	beq	r3,r2,102b9c <_gp+0xffefa4f0>
  102bac:	e0bff417 	ldw	r2,-48(fp)
  102bb0:	10bfffc4 	addi	r2,r2,-1
  102bb4:	e0bff415 	stw	r2,-48(fp)
  102bb8:	e0bffc17 	ldw	r2,-16(fp)
  102bbc:	10c00517 	ldw	r3,20(r2)
  102bc0:	e0bffd17 	ldw	r2,-12(fp)
  102bc4:	11000044 	addi	r4,r2,1
  102bc8:	e13ffd15 	stw	r4,-12(fp)
  102bcc:	10800003 	ldbu	r2,0(r2)
  102bd0:	1009883a 	mov	r4,r2
  102bd4:	e0bffc17 	ldw	r2,-16(fp)
  102bd8:	10c5883a 	add	r2,r2,r3
  102bdc:	10801704 	addi	r2,r2,92
  102be0:	11000005 	stb	r4,0(r2)
  102be4:	e0bffc17 	ldw	r2,-16(fp)
  102be8:	e0fff717 	ldw	r3,-36(fp)
  102bec:	10c00515 	stw	r3,20(r2)
  102bf0:	e0bff417 	ldw	r2,-48(fp)
  102bf4:	103fc21e 	bne	r2,zero,102b00 <_gp+0xffefa454>
  102bf8:	0005303a 	rdctl	r2,status
  102bfc:	e0bffb15 	stw	r2,-20(fp)
  102c00:	e0fffb17 	ldw	r3,-20(fp)
  102c04:	00bfff84 	movi	r2,-2
  102c08:	1884703a 	and	r2,r3,r2
  102c0c:	1001703a 	wrctl	status,r2
  102c10:	e0bffb17 	ldw	r2,-20(fp)
  102c14:	e0bff815 	stw	r2,-32(fp)
  102c18:	e0bffc17 	ldw	r2,-16(fp)
  102c1c:	10800117 	ldw	r2,4(r2)
  102c20:	10c11014 	ori	r3,r2,1088
  102c24:	e0bffc17 	ldw	r2,-16(fp)
  102c28:	10c00115 	stw	r3,4(r2)
  102c2c:	e0bffc17 	ldw	r2,-16(fp)
  102c30:	10800017 	ldw	r2,0(r2)
  102c34:	10800304 	addi	r2,r2,12
  102c38:	e0fffc17 	ldw	r3,-16(fp)
  102c3c:	18c00117 	ldw	r3,4(r3)
  102c40:	10c00035 	stwio	r3,0(r2)
  102c44:	e0bff817 	ldw	r2,-32(fp)
  102c48:	e0bffa15 	stw	r2,-24(fp)
  102c4c:	e0bffa17 	ldw	r2,-24(fp)
  102c50:	1001703a 	wrctl	status,r2
  102c54:	e0fffe17 	ldw	r3,-8(fp)
  102c58:	e0bff417 	ldw	r2,-48(fp)
  102c5c:	1885c83a 	sub	r2,r3,r2
  102c60:	e037883a 	mov	sp,fp
  102c64:	dfc00117 	ldw	ra,4(sp)
  102c68:	df000017 	ldw	fp,0(sp)
  102c6c:	dec00204 	addi	sp,sp,8
  102c70:	f800283a 	ret

00102c74 <alt_busy_sleep>:
  102c74:	defffa04 	addi	sp,sp,-24
  102c78:	dfc00515 	stw	ra,20(sp)
  102c7c:	df000415 	stw	fp,16(sp)
  102c80:	df000404 	addi	fp,sp,16
  102c84:	e13fff15 	stw	r4,-4(fp)
  102c88:	00800244 	movi	r2,9
  102c8c:	e0bffd15 	stw	r2,-12(fp)
  102c90:	014003f4 	movhi	r5,15
  102c94:	29509004 	addi	r5,r5,16960
  102c98:	e13ffd17 	ldw	r4,-12(fp)
  102c9c:	0101cc40 	call	101cc4 <__mulsi3>
  102ca0:	100b883a 	mov	r5,r2
  102ca4:	010098b4 	movhi	r4,610
  102ca8:	21168004 	addi	r4,r4,23040
  102cac:	0101c080 	call	101c08 <__udivsi3>
  102cb0:	100b883a 	mov	r5,r2
  102cb4:	01200034 	movhi	r4,32768
  102cb8:	213fffc4 	addi	r4,r4,-1
  102cbc:	0101c080 	call	101c08 <__udivsi3>
  102cc0:	100b883a 	mov	r5,r2
  102cc4:	e13fff17 	ldw	r4,-4(fp)
  102cc8:	0101c080 	call	101c08 <__udivsi3>
  102ccc:	e0bffe15 	stw	r2,-8(fp)
  102cd0:	e0bffe17 	ldw	r2,-8(fp)
  102cd4:	10002a26 	beq	r2,zero,102d80 <alt_busy_sleep+0x10c>
  102cd8:	e03ffc15 	stw	zero,-16(fp)
  102cdc:	00001706 	br	102d3c <alt_busy_sleep+0xc8>
  102ce0:	00a00034 	movhi	r2,32768
  102ce4:	10bfffc4 	addi	r2,r2,-1
  102ce8:	10bfffc4 	addi	r2,r2,-1
  102cec:	103ffe1e 	bne	r2,zero,102ce8 <_gp+0xffefa63c>
  102cf0:	014003f4 	movhi	r5,15
  102cf4:	29509004 	addi	r5,r5,16960
  102cf8:	e13ffd17 	ldw	r4,-12(fp)
  102cfc:	0101cc40 	call	101cc4 <__mulsi3>
  102d00:	100b883a 	mov	r5,r2
  102d04:	010098b4 	movhi	r4,610
  102d08:	21168004 	addi	r4,r4,23040
  102d0c:	0101c080 	call	101c08 <__udivsi3>
  102d10:	100b883a 	mov	r5,r2
  102d14:	01200034 	movhi	r4,32768
  102d18:	213fffc4 	addi	r4,r4,-1
  102d1c:	0101c080 	call	101c08 <__udivsi3>
  102d20:	1007883a 	mov	r3,r2
  102d24:	e0bfff17 	ldw	r2,-4(fp)
  102d28:	10c5c83a 	sub	r2,r2,r3
  102d2c:	e0bfff15 	stw	r2,-4(fp)
  102d30:	e0bffc17 	ldw	r2,-16(fp)
  102d34:	10800044 	addi	r2,r2,1
  102d38:	e0bffc15 	stw	r2,-16(fp)
  102d3c:	e0fffc17 	ldw	r3,-16(fp)
  102d40:	e0bffe17 	ldw	r2,-8(fp)
  102d44:	18bfe616 	blt	r3,r2,102ce0 <_gp+0xffefa634>
  102d48:	014003f4 	movhi	r5,15
  102d4c:	29509004 	addi	r5,r5,16960
  102d50:	e13ffd17 	ldw	r4,-12(fp)
  102d54:	0101cc40 	call	101cc4 <__mulsi3>
  102d58:	100b883a 	mov	r5,r2
  102d5c:	010098b4 	movhi	r4,610
  102d60:	21168004 	addi	r4,r4,23040
  102d64:	0101c080 	call	101c08 <__udivsi3>
  102d68:	e17fff17 	ldw	r5,-4(fp)
  102d6c:	1009883a 	mov	r4,r2
  102d70:	0101cc40 	call	101cc4 <__mulsi3>
  102d74:	10bfffc4 	addi	r2,r2,-1
  102d78:	103ffe1e 	bne	r2,zero,102d74 <_gp+0xffefa6c8>
  102d7c:	00000d06 	br	102db4 <alt_busy_sleep+0x140>
  102d80:	014003f4 	movhi	r5,15
  102d84:	29509004 	addi	r5,r5,16960
  102d88:	e13ffd17 	ldw	r4,-12(fp)
  102d8c:	0101cc40 	call	101cc4 <__mulsi3>
  102d90:	100b883a 	mov	r5,r2
  102d94:	010098b4 	movhi	r4,610
  102d98:	21168004 	addi	r4,r4,23040
  102d9c:	0101c080 	call	101c08 <__udivsi3>
  102da0:	e17fff17 	ldw	r5,-4(fp)
  102da4:	1009883a 	mov	r4,r2
  102da8:	0101cc40 	call	101cc4 <__mulsi3>
  102dac:	10bfffc4 	addi	r2,r2,-1
  102db0:	00bffe16 	blt	zero,r2,102dac <_gp+0xffefa700>
  102db4:	0005883a 	mov	r2,zero
  102db8:	e037883a 	mov	sp,fp
  102dbc:	dfc00117 	ldw	ra,4(sp)
  102dc0:	df000017 	ldw	fp,0(sp)
  102dc4:	dec00204 	addi	sp,sp,8
  102dc8:	f800283a 	ret

00102dcc <alt_get_errno>:
  102dcc:	defffe04 	addi	sp,sp,-8
  102dd0:	dfc00115 	stw	ra,4(sp)
  102dd4:	df000015 	stw	fp,0(sp)
  102dd8:	d839883a 	mov	fp,sp
  102ddc:	d0a00c17 	ldw	r2,-32720(gp)
  102de0:	10000326 	beq	r2,zero,102df0 <alt_get_errno+0x24>
  102de4:	d0a00c17 	ldw	r2,-32720(gp)
  102de8:	103ee83a 	callr	r2
  102dec:	00000106 	br	102df4 <alt_get_errno+0x28>
  102df0:	d0a02a04 	addi	r2,gp,-32600
  102df4:	e037883a 	mov	sp,fp
  102df8:	dfc00117 	ldw	ra,4(sp)
  102dfc:	df000017 	ldw	fp,0(sp)
  102e00:	dec00204 	addi	sp,sp,8
  102e04:	f800283a 	ret

00102e08 <close>:
  102e08:	defffb04 	addi	sp,sp,-20
  102e0c:	dfc00415 	stw	ra,16(sp)
  102e10:	df000315 	stw	fp,12(sp)
  102e14:	df000304 	addi	fp,sp,12
  102e18:	e13fff15 	stw	r4,-4(fp)
  102e1c:	e0bfff17 	ldw	r2,-4(fp)
  102e20:	10000816 	blt	r2,zero,102e44 <close+0x3c>
  102e24:	01400304 	movi	r5,12
  102e28:	e13fff17 	ldw	r4,-4(fp)
  102e2c:	0101cc40 	call	101cc4 <__mulsi3>
  102e30:	1007883a 	mov	r3,r2
  102e34:	00800834 	movhi	r2,32
  102e38:	10804204 	addi	r2,r2,264
  102e3c:	1885883a 	add	r2,r3,r2
  102e40:	00000106 	br	102e48 <close+0x40>
  102e44:	0005883a 	mov	r2,zero
  102e48:	e0bffd15 	stw	r2,-12(fp)
  102e4c:	e0bffd17 	ldw	r2,-12(fp)
  102e50:	10001926 	beq	r2,zero,102eb8 <close+0xb0>
  102e54:	e0bffd17 	ldw	r2,-12(fp)
  102e58:	10800017 	ldw	r2,0(r2)
  102e5c:	10800417 	ldw	r2,16(r2)
  102e60:	10000626 	beq	r2,zero,102e7c <close+0x74>
  102e64:	e0bffd17 	ldw	r2,-12(fp)
  102e68:	10800017 	ldw	r2,0(r2)
  102e6c:	10800417 	ldw	r2,16(r2)
  102e70:	e13ffd17 	ldw	r4,-12(fp)
  102e74:	103ee83a 	callr	r2
  102e78:	00000106 	br	102e80 <close+0x78>
  102e7c:	0005883a 	mov	r2,zero
  102e80:	e0bffe15 	stw	r2,-8(fp)
  102e84:	e13fff17 	ldw	r4,-4(fp)
  102e88:	010338c0 	call	10338c <alt_release_fd>
  102e8c:	e0bffe17 	ldw	r2,-8(fp)
  102e90:	1000070e 	bge	r2,zero,102eb0 <close+0xa8>
  102e94:	0102dcc0 	call	102dcc <alt_get_errno>
  102e98:	1007883a 	mov	r3,r2
  102e9c:	e0bffe17 	ldw	r2,-8(fp)
  102ea0:	0085c83a 	sub	r2,zero,r2
  102ea4:	18800015 	stw	r2,0(r3)
  102ea8:	00bfffc4 	movi	r2,-1
  102eac:	00000706 	br	102ecc <close+0xc4>
  102eb0:	0005883a 	mov	r2,zero
  102eb4:	00000506 	br	102ecc <close+0xc4>
  102eb8:	0102dcc0 	call	102dcc <alt_get_errno>
  102ebc:	1007883a 	mov	r3,r2
  102ec0:	00801444 	movi	r2,81
  102ec4:	18800015 	stw	r2,0(r3)
  102ec8:	00bfffc4 	movi	r2,-1
  102ecc:	e037883a 	mov	sp,fp
  102ed0:	dfc00117 	ldw	ra,4(sp)
  102ed4:	df000017 	ldw	fp,0(sp)
  102ed8:	dec00204 	addi	sp,sp,8
  102edc:	f800283a 	ret

00102ee0 <alt_dcache_flush_all>:
  102ee0:	deffff04 	addi	sp,sp,-4
  102ee4:	df000015 	stw	fp,0(sp)
  102ee8:	d839883a 	mov	fp,sp
  102eec:	0001883a 	nop
  102ef0:	e037883a 	mov	sp,fp
  102ef4:	df000017 	ldw	fp,0(sp)
  102ef8:	dec00104 	addi	sp,sp,4
  102efc:	f800283a 	ret

00102f00 <alt_dev_null_write>:
  102f00:	defffc04 	addi	sp,sp,-16
  102f04:	df000315 	stw	fp,12(sp)
  102f08:	df000304 	addi	fp,sp,12
  102f0c:	e13ffd15 	stw	r4,-12(fp)
  102f10:	e17ffe15 	stw	r5,-8(fp)
  102f14:	e1bfff15 	stw	r6,-4(fp)
  102f18:	e0bfff17 	ldw	r2,-4(fp)
  102f1c:	e037883a 	mov	sp,fp
  102f20:	df000017 	ldw	fp,0(sp)
  102f24:	dec00104 	addi	sp,sp,4
  102f28:	f800283a 	ret

00102f2c <alt_get_errno>:
  102f2c:	defffe04 	addi	sp,sp,-8
  102f30:	dfc00115 	stw	ra,4(sp)
  102f34:	df000015 	stw	fp,0(sp)
  102f38:	d839883a 	mov	fp,sp
  102f3c:	d0a00c17 	ldw	r2,-32720(gp)
  102f40:	10000326 	beq	r2,zero,102f50 <alt_get_errno+0x24>
  102f44:	d0a00c17 	ldw	r2,-32720(gp)
  102f48:	103ee83a 	callr	r2
  102f4c:	00000106 	br	102f54 <alt_get_errno+0x28>
  102f50:	d0a02a04 	addi	r2,gp,-32600
  102f54:	e037883a 	mov	sp,fp
  102f58:	dfc00117 	ldw	ra,4(sp)
  102f5c:	df000017 	ldw	fp,0(sp)
  102f60:	dec00204 	addi	sp,sp,8
  102f64:	f800283a 	ret

00102f68 <alt_dev_llist_insert>:
  102f68:	defffa04 	addi	sp,sp,-24
  102f6c:	dfc00515 	stw	ra,20(sp)
  102f70:	df000415 	stw	fp,16(sp)
  102f74:	df000404 	addi	fp,sp,16
  102f78:	e13ffe15 	stw	r4,-8(fp)
  102f7c:	e17fff15 	stw	r5,-4(fp)
  102f80:	e0bffe17 	ldw	r2,-8(fp)
  102f84:	10000326 	beq	r2,zero,102f94 <alt_dev_llist_insert+0x2c>
  102f88:	e0bffe17 	ldw	r2,-8(fp)
  102f8c:	10800217 	ldw	r2,8(r2)
  102f90:	1000061e 	bne	r2,zero,102fac <alt_dev_llist_insert+0x44>
  102f94:	0102f2c0 	call	102f2c <alt_get_errno>
  102f98:	1007883a 	mov	r3,r2
  102f9c:	00800584 	movi	r2,22
  102fa0:	18800015 	stw	r2,0(r3)
  102fa4:	00bffa84 	movi	r2,-22
  102fa8:	00001306 	br	102ff8 <alt_dev_llist_insert+0x90>
  102fac:	e0bffe17 	ldw	r2,-8(fp)
  102fb0:	e0ffff17 	ldw	r3,-4(fp)
  102fb4:	e0fffc15 	stw	r3,-16(fp)
  102fb8:	e0bffd15 	stw	r2,-12(fp)
  102fbc:	e0bffd17 	ldw	r2,-12(fp)
  102fc0:	e0fffc17 	ldw	r3,-16(fp)
  102fc4:	10c00115 	stw	r3,4(r2)
  102fc8:	e0bffc17 	ldw	r2,-16(fp)
  102fcc:	10c00017 	ldw	r3,0(r2)
  102fd0:	e0bffd17 	ldw	r2,-12(fp)
  102fd4:	10c00015 	stw	r3,0(r2)
  102fd8:	e0bffc17 	ldw	r2,-16(fp)
  102fdc:	10800017 	ldw	r2,0(r2)
  102fe0:	e0fffd17 	ldw	r3,-12(fp)
  102fe4:	10c00115 	stw	r3,4(r2)
  102fe8:	e0bffc17 	ldw	r2,-16(fp)
  102fec:	e0fffd17 	ldw	r3,-12(fp)
  102ff0:	10c00015 	stw	r3,0(r2)
  102ff4:	0005883a 	mov	r2,zero
  102ff8:	e037883a 	mov	sp,fp
  102ffc:	dfc00117 	ldw	ra,4(sp)
  103000:	df000017 	ldw	fp,0(sp)
  103004:	dec00204 	addi	sp,sp,8
  103008:	f800283a 	ret

0010300c <_do_ctors>:
  10300c:	defffd04 	addi	sp,sp,-12
  103010:	dfc00215 	stw	ra,8(sp)
  103014:	df000115 	stw	fp,4(sp)
  103018:	df000104 	addi	fp,sp,4
  10301c:	00800434 	movhi	r2,16
  103020:	108df904 	addi	r2,r2,14308
  103024:	e0bfff15 	stw	r2,-4(fp)
  103028:	00000606 	br	103044 <_do_ctors+0x38>
  10302c:	e0bfff17 	ldw	r2,-4(fp)
  103030:	10800017 	ldw	r2,0(r2)
  103034:	103ee83a 	callr	r2
  103038:	e0bfff17 	ldw	r2,-4(fp)
  10303c:	10bfff04 	addi	r2,r2,-4
  103040:	e0bfff15 	stw	r2,-4(fp)
  103044:	e0ffff17 	ldw	r3,-4(fp)
  103048:	00800434 	movhi	r2,16
  10304c:	108dfa04 	addi	r2,r2,14312
  103050:	18bff62e 	bgeu	r3,r2,10302c <_gp+0xffefa980>
  103054:	0001883a 	nop
  103058:	e037883a 	mov	sp,fp
  10305c:	dfc00117 	ldw	ra,4(sp)
  103060:	df000017 	ldw	fp,0(sp)
  103064:	dec00204 	addi	sp,sp,8
  103068:	f800283a 	ret

0010306c <_do_dtors>:
  10306c:	defffd04 	addi	sp,sp,-12
  103070:	dfc00215 	stw	ra,8(sp)
  103074:	df000115 	stw	fp,4(sp)
  103078:	df000104 	addi	fp,sp,4
  10307c:	00800434 	movhi	r2,16
  103080:	108df904 	addi	r2,r2,14308
  103084:	e0bfff15 	stw	r2,-4(fp)
  103088:	00000606 	br	1030a4 <_do_dtors+0x38>
  10308c:	e0bfff17 	ldw	r2,-4(fp)
  103090:	10800017 	ldw	r2,0(r2)
  103094:	103ee83a 	callr	r2
  103098:	e0bfff17 	ldw	r2,-4(fp)
  10309c:	10bfff04 	addi	r2,r2,-4
  1030a0:	e0bfff15 	stw	r2,-4(fp)
  1030a4:	e0ffff17 	ldw	r3,-4(fp)
  1030a8:	00800434 	movhi	r2,16
  1030ac:	108dfa04 	addi	r2,r2,14312
  1030b0:	18bff62e 	bgeu	r3,r2,10308c <_gp+0xffefa9e0>
  1030b4:	0001883a 	nop
  1030b8:	e037883a 	mov	sp,fp
  1030bc:	dfc00117 	ldw	ra,4(sp)
  1030c0:	df000017 	ldw	fp,0(sp)
  1030c4:	dec00204 	addi	sp,sp,8
  1030c8:	f800283a 	ret

001030cc <alt_icache_flush_all>:
  1030cc:	deffff04 	addi	sp,sp,-4
  1030d0:	df000015 	stw	fp,0(sp)
  1030d4:	d839883a 	mov	fp,sp
  1030d8:	0001883a 	nop
  1030dc:	e037883a 	mov	sp,fp
  1030e0:	df000017 	ldw	fp,0(sp)
  1030e4:	dec00104 	addi	sp,sp,4
  1030e8:	f800283a 	ret

001030ec <alt_ic_isr_register>:
  1030ec:	defff904 	addi	sp,sp,-28
  1030f0:	dfc00615 	stw	ra,24(sp)
  1030f4:	df000515 	stw	fp,20(sp)
  1030f8:	df000504 	addi	fp,sp,20
  1030fc:	e13ffc15 	stw	r4,-16(fp)
  103100:	e17ffd15 	stw	r5,-12(fp)
  103104:	e1bffe15 	stw	r6,-8(fp)
  103108:	e1ffff15 	stw	r7,-4(fp)
  10310c:	e0800217 	ldw	r2,8(fp)
  103110:	d8800015 	stw	r2,0(sp)
  103114:	e1ffff17 	ldw	r7,-4(fp)
  103118:	e1bffe17 	ldw	r6,-8(fp)
  10311c:	e17ffd17 	ldw	r5,-12(fp)
  103120:	e13ffc17 	ldw	r4,-16(fp)
  103124:	010329c0 	call	10329c <alt_iic_isr_register>
  103128:	e037883a 	mov	sp,fp
  10312c:	dfc00117 	ldw	ra,4(sp)
  103130:	df000017 	ldw	fp,0(sp)
  103134:	dec00204 	addi	sp,sp,8
  103138:	f800283a 	ret

0010313c <alt_ic_irq_enable>:
  10313c:	defff904 	addi	sp,sp,-28
  103140:	df000615 	stw	fp,24(sp)
  103144:	df000604 	addi	fp,sp,24
  103148:	e13ffe15 	stw	r4,-8(fp)
  10314c:	e17fff15 	stw	r5,-4(fp)
  103150:	e0bfff17 	ldw	r2,-4(fp)
  103154:	e0bffa15 	stw	r2,-24(fp)
  103158:	0005303a 	rdctl	r2,status
  10315c:	e0bffb15 	stw	r2,-20(fp)
  103160:	e0fffb17 	ldw	r3,-20(fp)
  103164:	00bfff84 	movi	r2,-2
  103168:	1884703a 	and	r2,r3,r2
  10316c:	1001703a 	wrctl	status,r2
  103170:	e0bffb17 	ldw	r2,-20(fp)
  103174:	e0bffc15 	stw	r2,-16(fp)
  103178:	00c00044 	movi	r3,1
  10317c:	e0bffa17 	ldw	r2,-24(fp)
  103180:	1884983a 	sll	r2,r3,r2
  103184:	1007883a 	mov	r3,r2
  103188:	d0a02817 	ldw	r2,-32608(gp)
  10318c:	1884b03a 	or	r2,r3,r2
  103190:	d0a02815 	stw	r2,-32608(gp)
  103194:	d0a02817 	ldw	r2,-32608(gp)
  103198:	100170fa 	wrctl	ienable,r2
  10319c:	e0bffc17 	ldw	r2,-16(fp)
  1031a0:	e0bffd15 	stw	r2,-12(fp)
  1031a4:	e0bffd17 	ldw	r2,-12(fp)
  1031a8:	1001703a 	wrctl	status,r2
  1031ac:	0005883a 	mov	r2,zero
  1031b0:	0001883a 	nop
  1031b4:	e037883a 	mov	sp,fp
  1031b8:	df000017 	ldw	fp,0(sp)
  1031bc:	dec00104 	addi	sp,sp,4
  1031c0:	f800283a 	ret

001031c4 <alt_ic_irq_disable>:
  1031c4:	defff904 	addi	sp,sp,-28
  1031c8:	df000615 	stw	fp,24(sp)
  1031cc:	df000604 	addi	fp,sp,24
  1031d0:	e13ffe15 	stw	r4,-8(fp)
  1031d4:	e17fff15 	stw	r5,-4(fp)
  1031d8:	e0bfff17 	ldw	r2,-4(fp)
  1031dc:	e0bffa15 	stw	r2,-24(fp)
  1031e0:	0005303a 	rdctl	r2,status
  1031e4:	e0bffb15 	stw	r2,-20(fp)
  1031e8:	e0fffb17 	ldw	r3,-20(fp)
  1031ec:	00bfff84 	movi	r2,-2
  1031f0:	1884703a 	and	r2,r3,r2
  1031f4:	1001703a 	wrctl	status,r2
  1031f8:	e0bffb17 	ldw	r2,-20(fp)
  1031fc:	e0bffc15 	stw	r2,-16(fp)
  103200:	00c00044 	movi	r3,1
  103204:	e0bffa17 	ldw	r2,-24(fp)
  103208:	1884983a 	sll	r2,r3,r2
  10320c:	0084303a 	nor	r2,zero,r2
  103210:	1007883a 	mov	r3,r2
  103214:	d0a02817 	ldw	r2,-32608(gp)
  103218:	1884703a 	and	r2,r3,r2
  10321c:	d0a02815 	stw	r2,-32608(gp)
  103220:	d0a02817 	ldw	r2,-32608(gp)
  103224:	100170fa 	wrctl	ienable,r2
  103228:	e0bffc17 	ldw	r2,-16(fp)
  10322c:	e0bffd15 	stw	r2,-12(fp)
  103230:	e0bffd17 	ldw	r2,-12(fp)
  103234:	1001703a 	wrctl	status,r2
  103238:	0005883a 	mov	r2,zero
  10323c:	0001883a 	nop
  103240:	e037883a 	mov	sp,fp
  103244:	df000017 	ldw	fp,0(sp)
  103248:	dec00104 	addi	sp,sp,4
  10324c:	f800283a 	ret

00103250 <alt_ic_irq_enabled>:
  103250:	defffc04 	addi	sp,sp,-16
  103254:	df000315 	stw	fp,12(sp)
  103258:	df000304 	addi	fp,sp,12
  10325c:	e13ffe15 	stw	r4,-8(fp)
  103260:	e17fff15 	stw	r5,-4(fp)
  103264:	000530fa 	rdctl	r2,ienable
  103268:	e0bffd15 	stw	r2,-12(fp)
  10326c:	00c00044 	movi	r3,1
  103270:	e0bfff17 	ldw	r2,-4(fp)
  103274:	1884983a 	sll	r2,r3,r2
  103278:	1007883a 	mov	r3,r2
  10327c:	e0bffd17 	ldw	r2,-12(fp)
  103280:	1884703a 	and	r2,r3,r2
  103284:	1004c03a 	cmpne	r2,r2,zero
  103288:	10803fcc 	andi	r2,r2,255
  10328c:	e037883a 	mov	sp,fp
  103290:	df000017 	ldw	fp,0(sp)
  103294:	dec00104 	addi	sp,sp,4
  103298:	f800283a 	ret

0010329c <alt_iic_isr_register>:
  10329c:	defff504 	addi	sp,sp,-44
  1032a0:	dfc00a15 	stw	ra,40(sp)
  1032a4:	df000915 	stw	fp,36(sp)
  1032a8:	df000904 	addi	fp,sp,36
  1032ac:	e13ffc15 	stw	r4,-16(fp)
  1032b0:	e17ffd15 	stw	r5,-12(fp)
  1032b4:	e1bffe15 	stw	r6,-8(fp)
  1032b8:	e1ffff15 	stw	r7,-4(fp)
  1032bc:	00bffa84 	movi	r2,-22
  1032c0:	e0bff715 	stw	r2,-36(fp)
  1032c4:	e0bffd17 	ldw	r2,-12(fp)
  1032c8:	e0bff815 	stw	r2,-32(fp)
  1032cc:	e0bff817 	ldw	r2,-32(fp)
  1032d0:	10800808 	cmpgei	r2,r2,32
  1032d4:	1000271e 	bne	r2,zero,103374 <alt_iic_isr_register+0xd8>
  1032d8:	0005303a 	rdctl	r2,status
  1032dc:	e0bffb15 	stw	r2,-20(fp)
  1032e0:	e0fffb17 	ldw	r3,-20(fp)
  1032e4:	00bfff84 	movi	r2,-2
  1032e8:	1884703a 	and	r2,r3,r2
  1032ec:	1001703a 	wrctl	status,r2
  1032f0:	e0bffb17 	ldw	r2,-20(fp)
  1032f4:	e0bffa15 	stw	r2,-24(fp)
  1032f8:	00800834 	movhi	r2,32
  1032fc:	10823604 	addi	r2,r2,2264
  103300:	e0fff817 	ldw	r3,-32(fp)
  103304:	180690fa 	slli	r3,r3,3
  103308:	10c5883a 	add	r2,r2,r3
  10330c:	e0fffe17 	ldw	r3,-8(fp)
  103310:	10c00015 	stw	r3,0(r2)
  103314:	00800834 	movhi	r2,32
  103318:	10823604 	addi	r2,r2,2264
  10331c:	e0fff817 	ldw	r3,-32(fp)
  103320:	180690fa 	slli	r3,r3,3
  103324:	10c5883a 	add	r2,r2,r3
  103328:	10800104 	addi	r2,r2,4
  10332c:	e0ffff17 	ldw	r3,-4(fp)
  103330:	10c00015 	stw	r3,0(r2)
  103334:	e0bffe17 	ldw	r2,-8(fp)
  103338:	10000526 	beq	r2,zero,103350 <alt_iic_isr_register+0xb4>
  10333c:	e0bff817 	ldw	r2,-32(fp)
  103340:	100b883a 	mov	r5,r2
  103344:	e13ffc17 	ldw	r4,-16(fp)
  103348:	010313c0 	call	10313c <alt_ic_irq_enable>
  10334c:	00000406 	br	103360 <alt_iic_isr_register+0xc4>
  103350:	e0bff817 	ldw	r2,-32(fp)
  103354:	100b883a 	mov	r5,r2
  103358:	e13ffc17 	ldw	r4,-16(fp)
  10335c:	01031c40 	call	1031c4 <alt_ic_irq_disable>
  103360:	e0bff715 	stw	r2,-36(fp)
  103364:	e0bffa17 	ldw	r2,-24(fp)
  103368:	e0bff915 	stw	r2,-28(fp)
  10336c:	e0bff917 	ldw	r2,-28(fp)
  103370:	1001703a 	wrctl	status,r2
  103374:	e0bff717 	ldw	r2,-36(fp)
  103378:	e037883a 	mov	sp,fp
  10337c:	dfc00117 	ldw	ra,4(sp)
  103380:	df000017 	ldw	fp,0(sp)
  103384:	dec00204 	addi	sp,sp,8
  103388:	f800283a 	ret

0010338c <alt_release_fd>:
  10338c:	defffc04 	addi	sp,sp,-16
  103390:	dfc00315 	stw	ra,12(sp)
  103394:	df000215 	stw	fp,8(sp)
  103398:	dc000115 	stw	r16,4(sp)
  10339c:	df000204 	addi	fp,sp,8
  1033a0:	e13ffe15 	stw	r4,-8(fp)
  1033a4:	e0bffe17 	ldw	r2,-8(fp)
  1033a8:	108000d0 	cmplti	r2,r2,3
  1033ac:	1000111e 	bne	r2,zero,1033f4 <alt_release_fd+0x68>
  1033b0:	04000834 	movhi	r16,32
  1033b4:	84004204 	addi	r16,r16,264
  1033b8:	e0bffe17 	ldw	r2,-8(fp)
  1033bc:	01400304 	movi	r5,12
  1033c0:	1009883a 	mov	r4,r2
  1033c4:	0101cc40 	call	101cc4 <__mulsi3>
  1033c8:	8085883a 	add	r2,r16,r2
  1033cc:	10800204 	addi	r2,r2,8
  1033d0:	10000015 	stw	zero,0(r2)
  1033d4:	04000834 	movhi	r16,32
  1033d8:	84004204 	addi	r16,r16,264
  1033dc:	e0bffe17 	ldw	r2,-8(fp)
  1033e0:	01400304 	movi	r5,12
  1033e4:	1009883a 	mov	r4,r2
  1033e8:	0101cc40 	call	101cc4 <__mulsi3>
  1033ec:	8085883a 	add	r2,r16,r2
  1033f0:	10000015 	stw	zero,0(r2)
  1033f4:	0001883a 	nop
  1033f8:	e6ffff04 	addi	sp,fp,-4
  1033fc:	dfc00217 	ldw	ra,8(sp)
  103400:	df000117 	ldw	fp,4(sp)
  103404:	dc000017 	ldw	r16,0(sp)
  103408:	dec00304 	addi	sp,sp,12
  10340c:	f800283a 	ret

00103410 <altera_nios2_gen2_irq_init>:
  103410:	deffff04 	addi	sp,sp,-4
  103414:	df000015 	stw	fp,0(sp)
  103418:	d839883a 	mov	fp,sp
  10341c:	000170fa 	wrctl	ienable,zero
  103420:	0001883a 	nop
  103424:	e037883a 	mov	sp,fp
  103428:	df000017 	ldw	fp,0(sp)
  10342c:	dec00104 	addi	sp,sp,4
  103430:	f800283a 	ret

00103434 <alt_exception_cause_generated_bad_addr>:
  103434:	defffe04 	addi	sp,sp,-8
  103438:	df000115 	stw	fp,4(sp)
  10343c:	df000104 	addi	fp,sp,4
  103440:	e13fff15 	stw	r4,-4(fp)
  103444:	e0bfff17 	ldw	r2,-4(fp)
  103448:	10bffe84 	addi	r2,r2,-6
  10344c:	10c00428 	cmpgeui	r3,r2,16
  103450:	18001a1e 	bne	r3,zero,1034bc <alt_exception_cause_generated_bad_addr+0x88>
  103454:	100690ba 	slli	r3,r2,2
  103458:	00800434 	movhi	r2,16
  10345c:	108d1b04 	addi	r2,r2,13420
  103460:	1885883a 	add	r2,r3,r2
  103464:	10800017 	ldw	r2,0(r2)
  103468:	1000683a 	jmp	r2
  10346c:	001034ac 	andhi	zero,zero,16594
  103470:	001034ac 	andhi	zero,zero,16594
  103474:	001034bc 	xorhi	zero,zero,16594
  103478:	001034bc 	xorhi	zero,zero,16594
  10347c:	001034bc 	xorhi	zero,zero,16594
  103480:	001034ac 	andhi	zero,zero,16594
  103484:	001034b4 	movhi	zero,16594
  103488:	001034bc 	xorhi	zero,zero,16594
  10348c:	001034ac 	andhi	zero,zero,16594
  103490:	001034ac 	andhi	zero,zero,16594
  103494:	001034bc 	xorhi	zero,zero,16594
  103498:	001034ac 	andhi	zero,zero,16594
  10349c:	001034b4 	movhi	zero,16594
  1034a0:	001034bc 	xorhi	zero,zero,16594
  1034a4:	001034bc 	xorhi	zero,zero,16594
  1034a8:	001034ac 	andhi	zero,zero,16594
  1034ac:	00800044 	movi	r2,1
  1034b0:	00000306 	br	1034c0 <alt_exception_cause_generated_bad_addr+0x8c>
  1034b4:	0005883a 	mov	r2,zero
  1034b8:	00000106 	br	1034c0 <alt_exception_cause_generated_bad_addr+0x8c>
  1034bc:	0005883a 	mov	r2,zero
  1034c0:	e037883a 	mov	sp,fp
  1034c4:	df000017 	ldw	fp,0(sp)
  1034c8:	dec00104 	addi	sp,sp,4
  1034cc:	f800283a 	ret

001034d0 <atexit>:
  1034d0:	200b883a 	mov	r5,r4
  1034d4:	000f883a 	mov	r7,zero
  1034d8:	000d883a 	mov	r6,zero
  1034dc:	0009883a 	mov	r4,zero
  1034e0:	010351c1 	jmpi	10351c <__register_exitproc>

001034e4 <exit>:
  1034e4:	defffe04 	addi	sp,sp,-8
  1034e8:	000b883a 	mov	r5,zero
  1034ec:	dc000015 	stw	r16,0(sp)
  1034f0:	dfc00115 	stw	ra,4(sp)
  1034f4:	2021883a 	mov	r16,r4
  1034f8:	01036340 	call	103634 <__call_exitprocs>
  1034fc:	00800834 	movhi	r2,32
  103500:	1081b904 	addi	r2,r2,1764
  103504:	11000017 	ldw	r4,0(r2)
  103508:	20800f17 	ldw	r2,60(r4)
  10350c:	10000126 	beq	r2,zero,103514 <exit+0x30>
  103510:	103ee83a 	callr	r2
  103514:	8009883a 	mov	r4,r16
  103518:	01037b40 	call	1037b4 <_exit>

0010351c <__register_exitproc>:
  10351c:	defffa04 	addi	sp,sp,-24
  103520:	dc000315 	stw	r16,12(sp)
  103524:	04000834 	movhi	r16,32
  103528:	8401b904 	addi	r16,r16,1764
  10352c:	80c00017 	ldw	r3,0(r16)
  103530:	dc400415 	stw	r17,16(sp)
  103534:	dfc00515 	stw	ra,20(sp)
  103538:	18805217 	ldw	r2,328(r3)
  10353c:	2023883a 	mov	r17,r4
  103540:	10003726 	beq	r2,zero,103620 <__register_exitproc+0x104>
  103544:	10c00117 	ldw	r3,4(r2)
  103548:	010007c4 	movi	r4,31
  10354c:	20c00e16 	blt	r4,r3,103588 <__register_exitproc+0x6c>
  103550:	1a000044 	addi	r8,r3,1
  103554:	8800221e 	bne	r17,zero,1035e0 <__register_exitproc+0xc4>
  103558:	18c00084 	addi	r3,r3,2
  10355c:	18c7883a 	add	r3,r3,r3
  103560:	18c7883a 	add	r3,r3,r3
  103564:	12000115 	stw	r8,4(r2)
  103568:	10c7883a 	add	r3,r2,r3
  10356c:	19400015 	stw	r5,0(r3)
  103570:	0005883a 	mov	r2,zero
  103574:	dfc00517 	ldw	ra,20(sp)
  103578:	dc400417 	ldw	r17,16(sp)
  10357c:	dc000317 	ldw	r16,12(sp)
  103580:	dec00604 	addi	sp,sp,24
  103584:	f800283a 	ret
  103588:	00800034 	movhi	r2,0
  10358c:	10800004 	addi	r2,r2,0
  103590:	10002626 	beq	r2,zero,10362c <__register_exitproc+0x110>
  103594:	01006404 	movi	r4,400
  103598:	d9400015 	stw	r5,0(sp)
  10359c:	d9800115 	stw	r6,4(sp)
  1035a0:	d9c00215 	stw	r7,8(sp)
  1035a4:	00000000 	call	0 <__reset-0x100000>
  1035a8:	d9400017 	ldw	r5,0(sp)
  1035ac:	d9800117 	ldw	r6,4(sp)
  1035b0:	d9c00217 	ldw	r7,8(sp)
  1035b4:	10001d26 	beq	r2,zero,10362c <__register_exitproc+0x110>
  1035b8:	81000017 	ldw	r4,0(r16)
  1035bc:	10000115 	stw	zero,4(r2)
  1035c0:	02000044 	movi	r8,1
  1035c4:	22405217 	ldw	r9,328(r4)
  1035c8:	0007883a 	mov	r3,zero
  1035cc:	12400015 	stw	r9,0(r2)
  1035d0:	20805215 	stw	r2,328(r4)
  1035d4:	10006215 	stw	zero,392(r2)
  1035d8:	10006315 	stw	zero,396(r2)
  1035dc:	883fde26 	beq	r17,zero,103558 <_gp+0xffefaeac>
  1035e0:	18c9883a 	add	r4,r3,r3
  1035e4:	2109883a 	add	r4,r4,r4
  1035e8:	1109883a 	add	r4,r2,r4
  1035ec:	21802215 	stw	r6,136(r4)
  1035f0:	01800044 	movi	r6,1
  1035f4:	12406217 	ldw	r9,392(r2)
  1035f8:	30cc983a 	sll	r6,r6,r3
  1035fc:	4992b03a 	or	r9,r9,r6
  103600:	12406215 	stw	r9,392(r2)
  103604:	21c04215 	stw	r7,264(r4)
  103608:	01000084 	movi	r4,2
  10360c:	893fd21e 	bne	r17,r4,103558 <_gp+0xffefaeac>
  103610:	11006317 	ldw	r4,396(r2)
  103614:	218cb03a 	or	r6,r4,r6
  103618:	11806315 	stw	r6,396(r2)
  10361c:	003fce06 	br	103558 <_gp+0xffefaeac>
  103620:	18805304 	addi	r2,r3,332
  103624:	18805215 	stw	r2,328(r3)
  103628:	003fc606 	br	103544 <_gp+0xffefae98>
  10362c:	00bfffc4 	movi	r2,-1
  103630:	003fd006 	br	103574 <_gp+0xffefaec8>

00103634 <__call_exitprocs>:
  103634:	defff504 	addi	sp,sp,-44
  103638:	df000915 	stw	fp,36(sp)
  10363c:	dd400615 	stw	r21,24(sp)
  103640:	dc800315 	stw	r18,12(sp)
  103644:	dfc00a15 	stw	ra,40(sp)
  103648:	ddc00815 	stw	r23,32(sp)
  10364c:	dd800715 	stw	r22,28(sp)
  103650:	dd000515 	stw	r20,20(sp)
  103654:	dcc00415 	stw	r19,16(sp)
  103658:	dc400215 	stw	r17,8(sp)
  10365c:	dc000115 	stw	r16,4(sp)
  103660:	d9000015 	stw	r4,0(sp)
  103664:	2839883a 	mov	fp,r5
  103668:	04800044 	movi	r18,1
  10366c:	057fffc4 	movi	r21,-1
  103670:	00800834 	movhi	r2,32
  103674:	1081b904 	addi	r2,r2,1764
  103678:	12000017 	ldw	r8,0(r2)
  10367c:	45005217 	ldw	r20,328(r8)
  103680:	44c05204 	addi	r19,r8,328
  103684:	a0001c26 	beq	r20,zero,1036f8 <__call_exitprocs+0xc4>
  103688:	a0800117 	ldw	r2,4(r20)
  10368c:	15ffffc4 	addi	r23,r2,-1
  103690:	b8000d16 	blt	r23,zero,1036c8 <__call_exitprocs+0x94>
  103694:	14000044 	addi	r16,r2,1
  103698:	8421883a 	add	r16,r16,r16
  10369c:	8421883a 	add	r16,r16,r16
  1036a0:	84402004 	addi	r17,r16,128
  1036a4:	a463883a 	add	r17,r20,r17
  1036a8:	a421883a 	add	r16,r20,r16
  1036ac:	e0001e26 	beq	fp,zero,103728 <__call_exitprocs+0xf4>
  1036b0:	80804017 	ldw	r2,256(r16)
  1036b4:	e0801c26 	beq	fp,r2,103728 <__call_exitprocs+0xf4>
  1036b8:	bdffffc4 	addi	r23,r23,-1
  1036bc:	843fff04 	addi	r16,r16,-4
  1036c0:	8c7fff04 	addi	r17,r17,-4
  1036c4:	bd7ff91e 	bne	r23,r21,1036ac <_gp+0xffefb000>
  1036c8:	00800034 	movhi	r2,0
  1036cc:	10800004 	addi	r2,r2,0
  1036d0:	10000926 	beq	r2,zero,1036f8 <__call_exitprocs+0xc4>
  1036d4:	a0800117 	ldw	r2,4(r20)
  1036d8:	1000301e 	bne	r2,zero,10379c <__call_exitprocs+0x168>
  1036dc:	a0800017 	ldw	r2,0(r20)
  1036e0:	10003226 	beq	r2,zero,1037ac <__call_exitprocs+0x178>
  1036e4:	a009883a 	mov	r4,r20
  1036e8:	98800015 	stw	r2,0(r19)
  1036ec:	00000000 	call	0 <__reset-0x100000>
  1036f0:	9d000017 	ldw	r20,0(r19)
  1036f4:	a03fe41e 	bne	r20,zero,103688 <_gp+0xffefafdc>
  1036f8:	dfc00a17 	ldw	ra,40(sp)
  1036fc:	df000917 	ldw	fp,36(sp)
  103700:	ddc00817 	ldw	r23,32(sp)
  103704:	dd800717 	ldw	r22,28(sp)
  103708:	dd400617 	ldw	r21,24(sp)
  10370c:	dd000517 	ldw	r20,20(sp)
  103710:	dcc00417 	ldw	r19,16(sp)
  103714:	dc800317 	ldw	r18,12(sp)
  103718:	dc400217 	ldw	r17,8(sp)
  10371c:	dc000117 	ldw	r16,4(sp)
  103720:	dec00b04 	addi	sp,sp,44
  103724:	f800283a 	ret
  103728:	a0800117 	ldw	r2,4(r20)
  10372c:	80c00017 	ldw	r3,0(r16)
  103730:	10bfffc4 	addi	r2,r2,-1
  103734:	15c01426 	beq	r2,r23,103788 <__call_exitprocs+0x154>
  103738:	80000015 	stw	zero,0(r16)
  10373c:	183fde26 	beq	r3,zero,1036b8 <_gp+0xffefb00c>
  103740:	95c8983a 	sll	r4,r18,r23
  103744:	a0806217 	ldw	r2,392(r20)
  103748:	a5800117 	ldw	r22,4(r20)
  10374c:	2084703a 	and	r2,r4,r2
  103750:	10000b26 	beq	r2,zero,103780 <__call_exitprocs+0x14c>
  103754:	a0806317 	ldw	r2,396(r20)
  103758:	2088703a 	and	r4,r4,r2
  10375c:	20000c1e 	bne	r4,zero,103790 <__call_exitprocs+0x15c>
  103760:	89400017 	ldw	r5,0(r17)
  103764:	d9000017 	ldw	r4,0(sp)
  103768:	183ee83a 	callr	r3
  10376c:	a0800117 	ldw	r2,4(r20)
  103770:	15bfbf1e 	bne	r2,r22,103670 <_gp+0xffefafc4>
  103774:	98800017 	ldw	r2,0(r19)
  103778:	153fcf26 	beq	r2,r20,1036b8 <_gp+0xffefb00c>
  10377c:	003fbc06 	br	103670 <_gp+0xffefafc4>
  103780:	183ee83a 	callr	r3
  103784:	003ff906 	br	10376c <_gp+0xffefb0c0>
  103788:	a5c00115 	stw	r23,4(r20)
  10378c:	003feb06 	br	10373c <_gp+0xffefb090>
  103790:	89000017 	ldw	r4,0(r17)
  103794:	183ee83a 	callr	r3
  103798:	003ff406 	br	10376c <_gp+0xffefb0c0>
  10379c:	a0800017 	ldw	r2,0(r20)
  1037a0:	a027883a 	mov	r19,r20
  1037a4:	1029883a 	mov	r20,r2
  1037a8:	003fb606 	br	103684 <_gp+0xffefafd8>
  1037ac:	0005883a 	mov	r2,zero
  1037b0:	003ffb06 	br	1037a0 <_gp+0xffefb0f4>

001037b4 <_exit>:
  1037b4:	defffd04 	addi	sp,sp,-12
  1037b8:	df000215 	stw	fp,8(sp)
  1037bc:	df000204 	addi	fp,sp,8
  1037c0:	e13fff15 	stw	r4,-4(fp)
  1037c4:	0001883a 	nop
  1037c8:	e0bfff17 	ldw	r2,-4(fp)
  1037cc:	e0bffe15 	stw	r2,-8(fp)
  1037d0:	e0bffe17 	ldw	r2,-8(fp)
  1037d4:	10000226 	beq	r2,zero,1037e0 <_exit+0x2c>
  1037d8:	002af070 	cmpltui	zero,zero,43969
  1037dc:	00000106 	br	1037e4 <_exit+0x30>
  1037e0:	002af0b0 	cmpltui	zero,zero,43970
  1037e4:	003fff06 	br	1037e4 <_gp+0xffefb138>
